
/bench/bench:     file format elf64-littleaarch64


Disassembly of section .init:

0000000000004ce0 <_init>:
    4ce0:	d503201f 	nop
    4ce4:	a9bf7bfd 	stp	x29, x30, [sp, #-16]!
    4ce8:	910003fd 	mov	x29, sp
    4cec:	94001352 	bl	9a34 <call_weak_fn>
    4cf0:	a8c17bfd 	ldp	x29, x30, [sp], #16
    4cf4:	d65f03c0 	ret

Disassembly of section .plt:

0000000000004d00 <.plt>:
    4d00:	a9bf7bf0 	stp	x16, x30, [sp, #-16]!
    4d04:	90000310 	adrp	x16, 64000 <__do_global_dtors_aux_fini_array_entry+0x1e88>
    4d08:	f9465a11 	ldr	x17, [x16, #3248]
    4d0c:	9132c210 	add	x16, x16, #0xcb0
    4d10:	d61f0220 	br	x17
    4d14:	d503201f 	nop
    4d18:	d503201f 	nop
    4d1c:	d503201f 	nop

0000000000004d20 <memcpy@plt>:
    4d20:	90000310 	adrp	x16, 64000 <__do_global_dtors_aux_fini_array_entry+0x1e88>
    4d24:	f9465e11 	ldr	x17, [x16, #3256]
    4d28:	9132e210 	add	x16, x16, #0xcb8
    4d2c:	d61f0220 	br	x17

0000000000004d30 <sigaltstack@plt>:
    4d30:	90000310 	adrp	x16, 64000 <__do_global_dtors_aux_fini_array_entry+0x1e88>
    4d34:	f9466211 	ldr	x17, [x16, #3264]
    4d38:	91330210 	add	x16, x16, #0xcc0
    4d3c:	d61f0220 	br	x17

0000000000004d40 <memmove@plt>:
    4d40:	90000310 	adrp	x16, 64000 <__do_global_dtors_aux_fini_array_entry+0x1e88>
    4d44:	f9466611 	ldr	x17, [x16, #3272]
    4d48:	91332210 	add	x16, x16, #0xcc8
    4d4c:	d61f0220 	br	x17

0000000000004d50 <getcwd@plt>:
    4d50:	90000310 	adrp	x16, 64000 <__do_global_dtors_aux_fini_array_entry+0x1e88>
    4d54:	f9466a11 	ldr	x17, [x16, #3280]
    4d58:	91334210 	add	x16, x16, #0xcd0
    4d5c:	d61f0220 	br	x17

0000000000004d60 <strlen@plt>:
    4d60:	90000310 	adrp	x16, 64000 <__do_global_dtors_aux_fini_array_entry+0x1e88>
    4d64:	f9466e11 	ldr	x17, [x16, #3288]
    4d68:	91336210 	add	x16, x16, #0xcd8
    4d6c:	d61f0220 	br	x17

0000000000004d70 <exit@plt>:
    4d70:	90000310 	adrp	x16, 64000 <__do_global_dtors_aux_fini_array_entry+0x1e88>
    4d74:	f9467211 	ldr	x17, [x16, #3296]
    4d78:	91338210 	add	x16, x16, #0xce0
    4d7c:	d61f0220 	br	x17

0000000000004d80 <dup@plt>:
    4d80:	90000310 	adrp	x16, 64000 <__do_global_dtors_aux_fini_array_entry+0x1e88>
    4d84:	f9467611 	ldr	x17, [x16, #3304]
    4d88:	9133a210 	add	x16, x16, #0xce8
    4d8c:	d61f0220 	br	x17

0000000000004d90 <__libc_start_main@plt>:
    4d90:	90000310 	adrp	x16, 64000 <__do_global_dtors_aux_fini_array_entry+0x1e88>
    4d94:	f9467a11 	ldr	x17, [x16, #3312]
    4d98:	9133c210 	add	x16, x16, #0xcf0
    4d9c:	d61f0220 	br	x17

0000000000004da0 <_Unwind_Backtrace@plt>:
    4da0:	90000310 	adrp	x16, 64000 <__do_global_dtors_aux_fini_array_entry+0x1e88>
    4da4:	f9467e11 	ldr	x17, [x16, #3320]
    4da8:	9133e210 	add	x16, x16, #0xcf8
    4dac:	d61f0220 	br	x17

0000000000004db0 <__xpg_strerror_r@plt>:
    4db0:	90000310 	adrp	x16, 64000 <__do_global_dtors_aux_fini_array_entry+0x1e88>
    4db4:	f9468211 	ldr	x17, [x16, #3328]
    4db8:	91340210 	add	x16, x16, #0xd00
    4dbc:	d61f0220 	br	x17

0000000000004dc0 <pause@plt>:
    4dc0:	90000310 	adrp	x16, 64000 <__do_global_dtors_aux_fini_array_entry+0x1e88>
    4dc4:	f9468611 	ldr	x17, [x16, #3336]
    4dc8:	91342210 	add	x16, x16, #0xd08
    4dcc:	d61f0220 	br	x17

0000000000004dd0 <gettid@plt>:
    4dd0:	90000310 	adrp	x16, 64000 <__do_global_dtors_aux_fini_array_entry+0x1e88>
    4dd4:	f9468a11 	ldr	x17, [x16, #3344]
    4dd8:	91344210 	add	x16, x16, #0xd10
    4ddc:	d61f0220 	br	x17

0000000000004de0 <pthread_getattr_np@plt>:
    4de0:	90000310 	adrp	x16, 64000 <__do_global_dtors_aux_fini_array_entry+0x1e88>
    4de4:	f9468e11 	ldr	x17, [x16, #3352]
    4de8:	91346210 	add	x16, x16, #0xd18
    4dec:	d61f0220 	br	x17

0000000000004df0 <readlink@plt>:
    4df0:	90000310 	adrp	x16, 64000 <__do_global_dtors_aux_fini_array_entry+0x1e88>
    4df4:	f9469211 	ldr	x17, [x16, #3360]
    4df8:	91348210 	add	x16, x16, #0xd20
    4dfc:	d61f0220 	br	x17

0000000000004e00 <__cxa_finalize@plt>:
    4e00:	90000310 	adrp	x16, 64000 <__do_global_dtors_aux_fini_array_entry+0x1e88>
    4e04:	f9469611 	ldr	x17, [x16, #3368]
    4e08:	9134a210 	add	x16, x16, #0xd28
    4e0c:	d61f0220 	br	x17

0000000000004e10 <pipe@plt>:
    4e10:	90000310 	adrp	x16, 64000 <__do_global_dtors_aux_fini_array_entry+0x1e88>
    4e14:	f9469a11 	ldr	x17, [x16, #3376]
    4e18:	9134c210 	add	x16, x16, #0xd30
    4e1c:	d61f0220 	br	x17

0000000000004e20 <__cxa_thread_atexit_impl@plt>:
    4e20:	90000310 	adrp	x16, 64000 <__do_global_dtors_aux_fini_array_entry+0x1e88>
    4e24:	f9469e11 	ldr	x17, [x16, #3384]
    4e28:	9134e210 	add	x16, x16, #0xd38
    4e2c:	d61f0220 	br	x17

0000000000004e30 <clock_gettime@plt>:
    4e30:	90000310 	adrp	x16, 64000 <__do_global_dtors_aux_fini_array_entry+0x1e88>
    4e34:	f946a211 	ldr	x17, [x16, #3392]
    4e38:	91350210 	add	x16, x16, #0xd40
    4e3c:	d61f0220 	br	x17

0000000000004e40 <_Unwind_GetRegionStart@plt>:
    4e40:	90000310 	adrp	x16, 64000 <__do_global_dtors_aux_fini_array_entry+0x1e88>
    4e44:	f946a611 	ldr	x17, [x16, #3400]
    4e48:	91352210 	add	x16, x16, #0xd48
    4e4c:	d61f0220 	br	x17

0000000000004e50 <fork@plt>:
    4e50:	90000310 	adrp	x16, 64000 <__do_global_dtors_aux_fini_array_entry+0x1e88>
    4e54:	f946aa11 	ldr	x17, [x16, #3408]
    4e58:	91354210 	add	x16, x16, #0xd50
    4e5c:	d61f0220 	br	x17

0000000000004e60 <_Unwind_GetTextRelBase@plt>:
    4e60:	90000310 	adrp	x16, 64000 <__do_global_dtors_aux_fini_array_entry+0x1e88>
    4e64:	f946ae11 	ldr	x17, [x16, #3416]
    4e68:	91356210 	add	x16, x16, #0xd58
    4e6c:	d61f0220 	br	x17

0000000000004e70 <_Unwind_RaiseException@plt>:
    4e70:	90000310 	adrp	x16, 64000 <__do_global_dtors_aux_fini_array_entry+0x1e88>
    4e74:	f946b211 	ldr	x17, [x16, #3424]
    4e78:	91358210 	add	x16, x16, #0xd60
    4e7c:	d61f0220 	br	x17

0000000000004e80 <getauxval@plt>:
    4e80:	90000310 	adrp	x16, 64000 <__do_global_dtors_aux_fini_array_entry+0x1e88>
    4e84:	f946b611 	ldr	x17, [x16, #3432]
    4e88:	9135a210 	add	x16, x16, #0xd68
    4e8c:	d61f0220 	br	x17

0000000000004e90 <signal@plt>:
    4e90:	90000310 	adrp	x16, 64000 <__do_global_dtors_aux_fini_array_entry+0x1e88>
    4e94:	f946ba11 	ldr	x17, [x16, #3440]
    4e98:	9135c210 	add	x16, x16, #0xd70
    4e9c:	d61f0220 	br	x17

0000000000004ea0 <malloc@plt>:
    4ea0:	90000310 	adrp	x16, 64000 <__do_global_dtors_aux_fini_array_entry+0x1e88>
    4ea4:	f946be11 	ldr	x17, [x16, #3448]
    4ea8:	9135e210 	add	x16, x16, #0xd78
    4eac:	d61f0220 	br	x17

0000000000004eb0 <stat64@plt>:
    4eb0:	90000310 	adrp	x16, 64000 <__do_global_dtors_aux_fini_array_entry+0x1e88>
    4eb4:	f946c211 	ldr	x17, [x16, #3456]
    4eb8:	91360210 	add	x16, x16, #0xd80
    4ebc:	d61f0220 	br	x17

0000000000004ec0 <poll@plt>:
    4ec0:	90000310 	adrp	x16, 64000 <__do_global_dtors_aux_fini_array_entry+0x1e88>
    4ec4:	f946c611 	ldr	x17, [x16, #3464]
    4ec8:	91362210 	add	x16, x16, #0xd88
    4ecc:	d61f0220 	br	x17

0000000000004ed0 <pthread_attr_destroy@plt>:
    4ed0:	90000310 	adrp	x16, 64000 <__do_global_dtors_aux_fini_array_entry+0x1e88>
    4ed4:	f946ca11 	ldr	x17, [x16, #3472]
    4ed8:	91364210 	add	x16, x16, #0xd90
    4edc:	d61f0220 	br	x17

0000000000004ee0 <pthread_key_create@plt>:
    4ee0:	90000310 	adrp	x16, 64000 <__do_global_dtors_aux_fini_array_entry+0x1e88>
    4ee4:	f946ce11 	ldr	x17, [x16, #3480]
    4ee8:	91366210 	add	x16, x16, #0xd98
    4eec:	d61f0220 	br	x17

0000000000004ef0 <memset@plt>:
    4ef0:	90000310 	adrp	x16, 64000 <__do_global_dtors_aux_fini_array_entry+0x1e88>
    4ef4:	f946d211 	ldr	x17, [x16, #3488]
    4ef8:	91368210 	add	x16, x16, #0xda0
    4efc:	d61f0220 	br	x17

0000000000004f00 <_Unwind_GetIPInfo@plt>:
    4f00:	90000310 	adrp	x16, 64000 <__do_global_dtors_aux_fini_array_entry+0x1e88>
    4f04:	f946d611 	ldr	x17, [x16, #3496]
    4f08:	9136a210 	add	x16, x16, #0xda8
    4f0c:	d61f0220 	br	x17

0000000000004f10 <lseek64@plt>:
    4f10:	90000310 	adrp	x16, 64000 <__do_global_dtors_aux_fini_array_entry+0x1e88>
    4f14:	f946da11 	ldr	x17, [x16, #3504]
    4f18:	9136c210 	add	x16, x16, #0xdb0
    4f1c:	d61f0220 	br	x17

0000000000004f20 <posix_memalign@plt>:
    4f20:	90000310 	adrp	x16, 64000 <__do_global_dtors_aux_fini_array_entry+0x1e88>
    4f24:	f946de11 	ldr	x17, [x16, #3512]
    4f28:	9136e210 	add	x16, x16, #0xdb8
    4f2c:	d61f0220 	br	x17

0000000000004f30 <_Unwind_GetLanguageSpecificData@plt>:
    4f30:	90000310 	adrp	x16, 64000 <__do_global_dtors_aux_fini_array_entry+0x1e88>
    4f34:	f946e211 	ldr	x17, [x16, #3520]
    4f38:	91370210 	add	x16, x16, #0xdc0
    4f3c:	d61f0220 	br	x17

0000000000004f40 <calloc@plt>:
    4f40:	90000310 	adrp	x16, 64000 <__do_global_dtors_aux_fini_array_entry+0x1e88>
    4f44:	f946e611 	ldr	x17, [x16, #3528]
    4f48:	91372210 	add	x16, x16, #0xdc8
    4f4c:	d61f0220 	br	x17

0000000000004f50 <pthread_key_delete@plt>:
    4f50:	90000310 	adrp	x16, 64000 <__do_global_dtors_aux_fini_array_entry+0x1e88>
    4f54:	f946ea11 	ldr	x17, [x16, #3536]
    4f58:	91374210 	add	x16, x16, #0xdd0
    4f5c:	d61f0220 	br	x17

0000000000004f60 <bcmp@plt>:
    4f60:	90000310 	adrp	x16, 64000 <__do_global_dtors_aux_fini_array_entry+0x1e88>
    4f64:	f946ee11 	ldr	x17, [x16, #3544]
    4f68:	91376210 	add	x16, x16, #0xdd8
    4f6c:	d61f0220 	br	x17

0000000000004f70 <realloc@plt>:
    4f70:	90000310 	adrp	x16, 64000 <__do_global_dtors_aux_fini_array_entry+0x1e88>
    4f74:	f946f211 	ldr	x17, [x16, #3552]
    4f78:	91378210 	add	x16, x16, #0xde0
    4f7c:	d61f0220 	br	x17

0000000000004f80 <close@plt>:
    4f80:	90000310 	adrp	x16, 64000 <__do_global_dtors_aux_fini_array_entry+0x1e88>
    4f84:	f946f611 	ldr	x17, [x16, #3560]
    4f88:	9137a210 	add	x16, x16, #0xde8
    4f8c:	d61f0220 	br	x17

0000000000004f90 <sigaction@plt>:
    4f90:	90000310 	adrp	x16, 64000 <__do_global_dtors_aux_fini_array_entry+0x1e88>
    4f94:	f946fa11 	ldr	x17, [x16, #3568]
    4f98:	9137c210 	add	x16, x16, #0xdf0
    4f9c:	d61f0220 	br	x17

0000000000004fa0 <pthread_attr_getstack@plt>:
    4fa0:	90000310 	adrp	x16, 64000 <__do_global_dtors_aux_fini_array_entry+0x1e88>
    4fa4:	f946fe11 	ldr	x17, [x16, #3576]
    4fa8:	9137e210 	add	x16, x16, #0xdf8
    4fac:	d61f0220 	br	x17

0000000000004fb0 <__gmon_start__@plt>:
    4fb0:	90000310 	adrp	x16, 64000 <__do_global_dtors_aux_fini_array_entry+0x1e88>
    4fb4:	f9470211 	ldr	x17, [x16, #3584]
    4fb8:	91380210 	add	x16, x16, #0xe00
    4fbc:	d61f0220 	br	x17

0000000000004fc0 <write@plt>:
    4fc0:	90000310 	adrp	x16, 64000 <__do_global_dtors_aux_fini_array_entry+0x1e88>
    4fc4:	f9470611 	ldr	x17, [x16, #3592]
    4fc8:	91382210 	add	x16, x16, #0xe08
    4fcc:	d61f0220 	br	x17

0000000000004fd0 <abort@plt>:
    4fd0:	90000310 	adrp	x16, 64000 <__do_global_dtors_aux_fini_array_entry+0x1e88>
    4fd4:	f9470a11 	ldr	x17, [x16, #3600]
    4fd8:	91384210 	add	x16, x16, #0xe10
    4fdc:	d61f0220 	br	x17

0000000000004fe0 <_Unwind_GetIP@plt>:
    4fe0:	90000310 	adrp	x16, 64000 <__do_global_dtors_aux_fini_array_entry+0x1e88>
    4fe4:	f9470e11 	ldr	x17, [x16, #3608]
    4fe8:	91386210 	add	x16, x16, #0xe18
    4fec:	d61f0220 	br	x17

0000000000004ff0 <pthread_attr_getguardsize@plt>:
    4ff0:	90000310 	adrp	x16, 64000 <__do_global_dtors_aux_fini_array_entry+0x1e88>
    4ff4:	f9471211 	ldr	x17, [x16, #3616]
    4ff8:	91388210 	add	x16, x16, #0xe20
    4ffc:	d61f0220 	br	x17

0000000000005000 <dl_iterate_phdr@plt>:
    5000:	f00002f0 	adrp	x16, 64000 <__do_global_dtors_aux_fini_array_entry+0x1e88>
    5004:	f9471611 	ldr	x17, [x16, #3624]
    5008:	9138a210 	add	x16, x16, #0xe28
    500c:	d61f0220 	br	x17

0000000000005010 <free@plt>:
    5010:	f00002f0 	adrp	x16, 64000 <__do_global_dtors_aux_fini_array_entry+0x1e88>
    5014:	f9471a11 	ldr	x17, [x16, #3632]
    5018:	9138c210 	add	x16, x16, #0xe30
    501c:	d61f0220 	br	x17

0000000000005020 <statx@plt>:
    5020:	f00002f0 	adrp	x16, 64000 <__do_global_dtors_aux_fini_array_entry+0x1e88>
    5024:	f9471e11 	ldr	x17, [x16, #3640]
    5028:	9138e210 	add	x16, x16, #0xe38
    502c:	d61f0220 	br	x17

0000000000005030 <_Unwind_GetDataRelBase@plt>:
    5030:	f00002f0 	adrp	x16, 64000 <__do_global_dtors_aux_fini_array_entry+0x1e88>
    5034:	f9472211 	ldr	x17, [x16, #3648]
    5038:	91390210 	add	x16, x16, #0xe40
    503c:	d61f0220 	br	x17

0000000000005040 <_Unwind_SetGR@plt>:
    5040:	f00002f0 	adrp	x16, 64000 <__do_global_dtors_aux_fini_array_entry+0x1e88>
    5044:	f9472611 	ldr	x17, [x16, #3656]
    5048:	91392210 	add	x16, x16, #0xe48
    504c:	d61f0220 	br	x17

0000000000005050 <fcntl@plt>:
    5050:	f00002f0 	adrp	x16, 64000 <__do_global_dtors_aux_fini_array_entry+0x1e88>
    5054:	f9472a11 	ldr	x17, [x16, #3664]
    5058:	91394210 	add	x16, x16, #0xe50
    505c:	d61f0220 	br	x17

0000000000005060 <wait@plt>:
    5060:	f00002f0 	adrp	x16, 64000 <__do_global_dtors_aux_fini_array_entry+0x1e88>
    5064:	f9472e11 	ldr	x17, [x16, #3672]
    5068:	91396210 	add	x16, x16, #0xe58
    506c:	d61f0220 	br	x17

0000000000005070 <munmap@plt>:
    5070:	f00002f0 	adrp	x16, 64000 <__do_global_dtors_aux_fini_array_entry+0x1e88>
    5074:	f9473211 	ldr	x17, [x16, #3680]
    5078:	91398210 	add	x16, x16, #0xe60
    507c:	d61f0220 	br	x17

0000000000005080 <read@plt>:
    5080:	f00002f0 	adrp	x16, 64000 <__do_global_dtors_aux_fini_array_entry+0x1e88>
    5084:	f9473611 	ldr	x17, [x16, #3688]
    5088:	9139a210 	add	x16, x16, #0xe68
    508c:	d61f0220 	br	x17

0000000000005090 <sysconf@plt>:
    5090:	f00002f0 	adrp	x16, 64000 <__do_global_dtors_aux_fini_array_entry+0x1e88>
    5094:	f9473a11 	ldr	x17, [x16, #3696]
    5098:	9139c210 	add	x16, x16, #0xe70
    509c:	d61f0220 	br	x17

00000000000050a0 <open64@plt>:
    50a0:	f00002f0 	adrp	x16, 64000 <__do_global_dtors_aux_fini_array_entry+0x1e88>
    50a4:	f9473e11 	ldr	x17, [x16, #3704]
    50a8:	9139e210 	add	x16, x16, #0xe78
    50ac:	d61f0220 	br	x17

00000000000050b0 <realpath@plt>:
    50b0:	f00002f0 	adrp	x16, 64000 <__do_global_dtors_aux_fini_array_entry+0x1e88>
    50b4:	f9474211 	ldr	x17, [x16, #3712]
    50b8:	913a0210 	add	x16, x16, #0xe80
    50bc:	d61f0220 	br	x17

00000000000050c0 <writev@plt>:
    50c0:	f00002f0 	adrp	x16, 64000 <__do_global_dtors_aux_fini_array_entry+0x1e88>
    50c4:	f9474611 	ldr	x17, [x16, #3720]
    50c8:	913a2210 	add	x16, x16, #0xe88
    50cc:	d61f0220 	br	x17

00000000000050d0 <fstat64@plt>:
    50d0:	f00002f0 	adrp	x16, 64000 <__do_global_dtors_aux_fini_array_entry+0x1e88>
    50d4:	f9474a11 	ldr	x17, [x16, #3728]
    50d8:	913a4210 	add	x16, x16, #0xe90
    50dc:	d61f0220 	br	x17

00000000000050e0 <pthread_self@plt>:
    50e0:	f00002f0 	adrp	x16, 64000 <__do_global_dtors_aux_fini_array_entry+0x1e88>
    50e4:	f9474e11 	ldr	x17, [x16, #3736]
    50e8:	913a6210 	add	x16, x16, #0xe98
    50ec:	d61f0220 	br	x17

00000000000050f0 <_Unwind_DeleteException@plt>:
    50f0:	f00002f0 	adrp	x16, 64000 <__do_global_dtors_aux_fini_array_entry+0x1e88>
    50f4:	f9475211 	ldr	x17, [x16, #3744]
    50f8:	913a8210 	add	x16, x16, #0xea0
    50fc:	d61f0220 	br	x17

0000000000005100 <__errno_location@plt>:
    5100:	f00002f0 	adrp	x16, 64000 <__do_global_dtors_aux_fini_array_entry+0x1e88>
    5104:	f9475611 	ldr	x17, [x16, #3752]
    5108:	913aa210 	add	x16, x16, #0xea8
    510c:	d61f0220 	br	x17

0000000000005110 <mmap64@plt>:
    5110:	f00002f0 	adrp	x16, 64000 <__do_global_dtors_aux_fini_array_entry+0x1e88>
    5114:	f9475a11 	ldr	x17, [x16, #3760]
    5118:	913ac210 	add	x16, x16, #0xeb0
    511c:	d61f0220 	br	x17

0000000000005120 <getenv@plt>:
    5120:	f00002f0 	adrp	x16, 64000 <__do_global_dtors_aux_fini_array_entry+0x1e88>
    5124:	f9475e11 	ldr	x17, [x16, #3768]
    5128:	913ae210 	add	x16, x16, #0xeb8
    512c:	d61f0220 	br	x17

0000000000005130 <_Unwind_Resume@plt>:
    5130:	f00002f0 	adrp	x16, 64000 <__do_global_dtors_aux_fini_array_entry+0x1e88>
    5134:	f9476211 	ldr	x17, [x16, #3776]
    5138:	913b0210 	add	x16, x16, #0xec0
    513c:	d61f0220 	br	x17

0000000000005140 <mprotect@plt>:
    5140:	f00002f0 	adrp	x16, 64000 <__do_global_dtors_aux_fini_array_entry+0x1e88>
    5144:	f9476611 	ldr	x17, [x16, #3784]
    5148:	913b2210 	add	x16, x16, #0xec8
    514c:	d61f0220 	br	x17

0000000000005150 <syscall@plt>:
    5150:	f00002f0 	adrp	x16, 64000 <__do_global_dtors_aux_fini_array_entry+0x1e88>
    5154:	f9476a11 	ldr	x17, [x16, #3792]
    5158:	913b4210 	add	x16, x16, #0xed0
    515c:	d61f0220 	br	x17

0000000000005160 <pthread_setspecific@plt>:
    5160:	f00002f0 	adrp	x16, 64000 <__do_global_dtors_aux_fini_array_entry+0x1e88>
    5164:	f9476e11 	ldr	x17, [x16, #3800]
    5168:	913b6210 	add	x16, x16, #0xed8
    516c:	d61f0220 	br	x17

0000000000005170 <_Unwind_SetIP@plt>:
    5170:	f00002f0 	adrp	x16, 64000 <__do_global_dtors_aux_fini_array_entry+0x1e88>
    5174:	f9477211 	ldr	x17, [x16, #3808]
    5178:	913b8210 	add	x16, x16, #0xee0
    517c:	d61f0220 	br	x17

Disassembly of section .text:

0000000000005180 <_RNvCsiGVaDesi5rv_7___rustc10rust_panic>:
    5180:	d101c3ff 	sub	sp, sp, #0x70
    5184:	a9067bfd 	stp	x29, x30, [sp, #96]
    5188:	910183fd 	add	x29, sp, #0x60
    518c:	9400a6f4 	bl	2ed5c <_RNvCsiGVaDesi5rv_7___rustc18___rust_start_panic>
    5190:	f00002e9 	adrp	x9, 64000 <__do_global_dtors_aux_fini_array_entry+0x1e88>
    5194:	910033e8 	add	x8, sp, #0xc
    5198:	910063e1 	add	x1, sp, #0x18
    519c:	f947b529 	ldr	x9, [x9, #3944]
    51a0:	b9000fe0 	str	w0, [sp, #12]
    51a4:	d10007a0 	sub	x0, x29, #0x1
    51a8:	a93ea7a8 	stp	x8, x9, [x29, #-24]
    51ac:	b00002e8 	adrp	x8, 62000 <GCC_except_table0+0x108dc>
    51b0:	9109a108 	add	x8, x8, #0x268
    51b4:	52800049 	mov	w9, #0x2                   	// #2
    51b8:	a901a7e8 	stp	x8, x9, [sp, #24]
    51bc:	d10063a8 	sub	x8, x29, #0x18
    51c0:	52800029 	mov	w9, #0x1                   	// #1
    51c4:	f90017e8 	str	x8, [sp, #40]
    51c8:	a9037fe9 	stp	x9, xzr, [sp, #48]
    51cc:	940035d4 	bl	1291c <_ZN3std2io5Write9write_fmt17h9ce43ea323a941f1E>
    51d0:	f9000be0 	str	x0, [sp, #16]
    51d4:	910043e0 	add	x0, sp, #0x10
    51d8:	940057b3 	bl	1b0a4 <_ZN4core3ptr81drop_in_place$LT$core..result..Result$LT$$LP$$RP$$C$std..io..error..Error$GT$$GT$17h9cd4d1d0faffe380E>
    51dc:	94000302 	bl	5de4 <_ZN3std7process5abort17ha60f5331ba5ea9ecE>

00000000000051e0 <_RNvCsiGVaDesi5rv_7___rustc26___rust_alloc_error_handler>:
    51e0:	a9bf7bfd 	stp	x29, x30, [sp, #-16]!
    51e4:	910003fd 	mov	x29, sp
    51e8:	aa0003e8 	mov	x8, x0
    51ec:	aa0103e0 	mov	x0, x1
    51f0:	aa0803e1 	mov	x1, x8
    51f4:	940002e3 	bl	5d80 <_ZN3std5alloc8rust_oom17ha63ff758ec950cdcE>

00000000000051f8 <_ZN3std2io8buffered9bufwriter18BufWriter$LT$W$GT$14write_all_cold17hb70e2038b03033beE>:
    51f8:	a9bc7bfd 	stp	x29, x30, [sp, #-64]!
    51fc:	f9000bf7 	str	x23, [sp, #16]
    5200:	a90257f6 	stp	x22, x21, [sp, #32]
    5204:	a9034ff4 	stp	x20, x19, [sp, #48]
    5208:	910003fd 	mov	x29, sp
    520c:	f9400008 	ldr	x8, [x0]
    5210:	f9400809 	ldr	x9, [x0, #16]
    5214:	aa0203f4 	mov	x20, x2
    5218:	aa0003f3 	mov	x19, x0
    521c:	aa0103f5 	mov	x21, x1
    5220:	cb090109 	sub	x9, x8, x9
    5224:	eb09005f 	cmp	x2, x9
    5228:	54000149 	b.ls	5250 <_ZN3std2io8buffered9bufwriter18BufWriter$LT$W$GT$14write_all_cold17hb70e2038b03033beE+0x58>  // b.plast
    522c:	aa1303e0 	mov	x0, x19
    5230:	94003900 	bl	13630 <_ZN3std2io8buffered9bufwriter18BufWriter$LT$W$GT$9flush_buf17h0d00de2e5f88b70fE>
    5234:	b40000c0 	cbz	x0, 524c <_ZN3std2io8buffered9bufwriter18BufWriter$LT$W$GT$14write_all_cold17hb70e2038b03033beE+0x54>
    5238:	a9434ff4 	ldp	x20, x19, [sp, #48]
    523c:	f9400bf7 	ldr	x23, [sp, #16]
    5240:	a94257f6 	ldp	x22, x21, [sp, #32]
    5244:	a8c47bfd 	ldp	x29, x30, [sp], #64
    5248:	d65f03c0 	ret
    524c:	f9400268 	ldr	x8, [x19]
    5250:	eb08029f 	cmp	x20, x8
    5254:	540001c2 	b.cs	528c <_ZN3std2io8buffered9bufwriter18BufWriter$LT$W$GT$14write_all_cold17hb70e2038b03033beE+0x94>  // b.hs, b.nlast
    5258:	a940da68 	ldp	x8, x22, [x19, #8]
    525c:	aa1503e1 	mov	x1, x21
    5260:	aa1403e2 	mov	x2, x20
    5264:	8b160100 	add	x0, x8, x22
    5268:	97fffeae 	bl	4d20 <memcpy@plt>
    526c:	8b1402c8 	add	x8, x22, x20
    5270:	aa1f03e0 	mov	x0, xzr
    5274:	f9000a68 	str	x8, [x19, #16]
    5278:	a9434ff4 	ldp	x20, x19, [sp, #48]
    527c:	f9400bf7 	ldr	x23, [sp, #16]
    5280:	a94257f6 	ldp	x22, x21, [sp, #32]
    5284:	a8c47bfd 	ldp	x29, x30, [sp], #64
    5288:	d65f03c0 	ret
    528c:	52800028 	mov	w8, #0x1                   	// #1
    5290:	39006268 	strb	w8, [x19, #24]
    5294:	b40002f4 	cbz	x20, 52f0 <_ZN3std2io8buffered9bufwriter18BufWriter$LT$W$GT$14write_all_cold17hb70e2038b03033beE+0xf8>
    5298:	92f00017 	mov	x23, #0x7fffffffffffffff    	// #9223372036854775807
    529c:	b00002f6 	adrp	x22, 62000 <GCC_except_table0+0x108dc>
    52a0:	9113e2d6 	add	x22, x22, #0x4f8
    52a4:	14000006 	b	52bc <_ZN3std2io8buffered9bufwriter18BufWriter$LT$W$GT$14write_all_cold17hb70e2038b03033beE+0xc4>
    52a8:	97ffff96 	bl	5100 <__errno_location@plt>
    52ac:	b9800008 	ldrsw	x8, [x0]
    52b0:	7100111f 	cmp	w8, #0x4
    52b4:	54000361 	b.ne	5320 <_ZN3std2io8buffered9bufwriter18BufWriter$LT$W$GT$14write_all_cold17hb70e2038b03033beE+0x128>  // b.any
    52b8:	b40001d4 	cbz	x20, 52f0 <_ZN3std2io8buffered9bufwriter18BufWriter$LT$W$GT$14write_all_cold17hb70e2038b03033beE+0xf8>
    52bc:	eb17029f 	cmp	x20, x23
    52c0:	52800020 	mov	w0, #0x1                   	// #1
    52c4:	aa1503e1 	mov	x1, x21
    52c8:	9a973282 	csel	x2, x20, x23, cc  // cc = lo, ul, last
    52cc:	97ffff3d 	bl	4fc0 <write@plt>
    52d0:	b100041f 	cmn	x0, #0x1
    52d4:	54fffea0 	b.eq	52a8 <_ZN3std2io8buffered9bufwriter18BufWriter$LT$W$GT$14write_all_cold17hb70e2038b03033beE+0xb0>  // b.none
    52d8:	b40000e0 	cbz	x0, 52f4 <_ZN3std2io8buffered9bufwriter18BufWriter$LT$W$GT$14write_all_cold17hb70e2038b03033beE+0xfc>
    52dc:	eb000288 	subs	x8, x20, x0
    52e0:	54000263 	b.cc	532c <_ZN3std2io8buffered9bufwriter18BufWriter$LT$W$GT$14write_all_cold17hb70e2038b03033beE+0x134>  // b.lo, b.ul, b.last
    52e4:	8b0002b5 	add	x21, x21, x0
    52e8:	aa0803f4 	mov	x20, x8
    52ec:	b5fffe88 	cbnz	x8, 52bc <_ZN3std2io8buffered9bufwriter18BufWriter$LT$W$GT$14write_all_cold17hb70e2038b03033beE+0xc4>
    52f0:	aa1f03f6 	mov	x22, xzr
    52f4:	d2800049 	mov	x9, #0x2                   	// #2
    52f8:	926086c8 	and	x8, x22, #0xffffffff00000003
    52fc:	3900627f 	strb	wzr, [x19, #24]
    5300:	f2c00129 	movk	x9, #0x9, lsl #32
    5304:	eb09011f 	cmp	x8, x9
    5308:	9a9603e0 	csel	x0, xzr, x22, eq  // eq = none
    530c:	a9434ff4 	ldp	x20, x19, [sp, #48]
    5310:	f9400bf7 	ldr	x23, [sp, #16]
    5314:	a94257f6 	ldp	x22, x21, [sp, #32]
    5318:	a8c47bfd 	ldp	x29, x30, [sp], #64
    531c:	d65f03c0 	ret
    5320:	52800049 	mov	w9, #0x2                   	// #2
    5324:	aa088136 	orr	x22, x9, x8, lsl #32
    5328:	17fffff3 	b	52f4 <_ZN3std2io8buffered9bufwriter18BufWriter$LT$W$GT$14write_all_cold17hb70e2038b03033beE+0xfc>
    532c:	b00002e3 	adrp	x3, 62000 <GCC_except_table0+0x108dc>
    5330:	91144063 	add	x3, x3, #0x510
    5334:	aa1403e1 	mov	x1, x20
    5338:	aa1403e2 	mov	x2, x20
    533c:	9400106a 	bl	94e4 <_ZN4core5slice5index16slice_index_fail17hfd1b153dd86c29eaE>

0000000000005340 <_ZN3std2rt15handle_rt_panic17haa7021185b6f0ea8E>:
    5340:	d10143ff 	sub	sp, sp, #0x50
    5344:	a9047bfd 	stp	x29, x30, [sp, #64]
    5348:	910103fd 	add	x29, sp, #0x40
    534c:	b00002e8 	adrp	x8, 62000 <GCC_except_table0+0x108dc>
    5350:	911aa108 	add	x8, x8, #0x6a8
    5354:	52800029 	mov	w9, #0x1                   	// #1
    5358:	a900a7e8 	stp	x8, x9, [sp, #8]
    535c:	52800108 	mov	w8, #0x8                   	// #8
    5360:	d10007a0 	sub	x0, x29, #0x1
    5364:	910023e1 	add	x1, sp, #0x8
    5368:	a9027fff 	stp	xzr, xzr, [sp, #32]
    536c:	f9000fe8 	str	x8, [sp, #24]
    5370:	9400356b 	bl	1291c <_ZN3std2io5Write9write_fmt17h9ce43ea323a941f1E>
    5374:	f90003e0 	str	x0, [sp]
    5378:	910003e0 	mov	x0, sp
    537c:	9400574a 	bl	1b0a4 <_ZN4core3ptr81drop_in_place$LT$core..result..Result$LT$$LP$$RP$$C$std..io..error..Error$GT$$GT$17h9cd4d1d0faffe380E>
    5380:	94000299 	bl	5de4 <_ZN3std7process5abort17ha60f5331ba5ea9ecE>

0000000000005384 <_ZN3std3sys3pal4unix14abort_internal17he2ed3140c753f125E>:
    5384:	a9bf7bfd 	stp	x29, x30, [sp, #-16]!
    5388:	910003fd 	mov	x29, sp
    538c:	97ffff11 	bl	4fd0 <abort@plt>

0000000000005390 <_ZN3std3sys3pal6common14small_c_string24run_with_cstr_allocating17h6c259b806d41085bE>:
    5390:	d10143ff 	sub	sp, sp, #0x50
    5394:	a9027bfd 	stp	x29, x30, [sp, #32]
    5398:	f9001bf5 	str	x21, [sp, #48]
    539c:	a9044ff4 	stp	x20, x19, [sp, #64]
    53a0:	910083fd 	add	x29, sp, #0x20
    53a4:	aa0003f5 	mov	x21, x0
    53a8:	910003e8 	mov	x8, sp
    53ac:	aa0103e0 	mov	x0, x1
    53b0:	aa0203e1 	mov	x1, x2
    53b4:	9400ce2a 	bl	38c5c <_ZN72_$LT$$RF$str$u20$as$u20$alloc..ffi..c_str..CString..new..SpecNewImpl$GT$13spec_new_impl17h97fe85ceecb538fcE>
    53b8:	f94003e1 	ldr	x1, [sp]
    53bc:	d2f00008 	mov	x8, #0x8000000000000000    	// #-9223372036854775808
    53c0:	eb08003f 	cmp	x1, x8
    53c4:	54000141 	b.ne	53ec <_ZN3std3sys3pal6common14small_c_string24run_with_cstr_allocating17h6c259b806d41085bE+0x5c>  // b.any
    53c8:	a940d3f3 	ldp	x19, x20, [sp, #8]
    53cc:	aa1503e8 	mov	x8, x21
    53d0:	aa1303e1 	mov	x1, x19
    53d4:	94003f8c 	bl	15204 <_ZN3std3sys3env4unix6getenv28_$u7b$$u7b$closure$u7d$$u7d$17h91be28cac4ab1d21E>
    53d8:	3900027f 	strb	wzr, [x19]
    53dc:	b4000194 	cbz	x20, 540c <_ZN3std3sys3pal6common14small_c_string24run_with_cstr_allocating17h6c259b806d41085bE+0x7c>
    53e0:	aa1303e0 	mov	x0, x19
    53e4:	aa1403e1 	mov	x1, x20
    53e8:	14000007 	b	5404 <_ZN3std3sys3pal6common14small_c_string24run_with_cstr_allocating17h6c259b806d41085bE+0x74>
    53ec:	b00002e8 	adrp	x8, 62000 <GCC_except_table0+0x108dc>
    53f0:	91278108 	add	x8, x8, #0x9e0
    53f4:	b24107e9 	mov	x9, #0x8000000000000001    	// #-9223372036854775807
    53f8:	a90022a9 	stp	x9, x8, [x21]
    53fc:	b4000081 	cbz	x1, 540c <_ZN3std3sys3pal6common14small_c_string24run_with_cstr_allocating17h6c259b806d41085bE+0x7c>
    5400:	f94007e0 	ldr	x0, [sp, #8]
    5404:	52800022 	mov	w2, #0x1                   	// #1
    5408:	9400129a 	bl	9e70 <_RNvCsiGVaDesi5rv_7___rustc14___rust_dealloc>
    540c:	a9444ff4 	ldp	x20, x19, [sp, #64]
    5410:	f9401bf5 	ldr	x21, [sp, #48]
    5414:	a9427bfd 	ldp	x29, x30, [sp, #32]
    5418:	910143ff 	add	sp, sp, #0x50
    541c:	d65f03c0 	ret
    5420:	aa0003f5 	mov	x21, x0
    5424:	3900027f 	strb	wzr, [x19]
    5428:	b40000b4 	cbz	x20, 543c <_ZN3std3sys3pal6common14small_c_string24run_with_cstr_allocating17h6c259b806d41085bE+0xac>
    542c:	aa1303e0 	mov	x0, x19
    5430:	aa1403e1 	mov	x1, x20
    5434:	52800022 	mov	w2, #0x1                   	// #1
    5438:	9400128e 	bl	9e70 <_RNvCsiGVaDesi5rv_7___rustc14___rust_dealloc>
    543c:	aa1503e0 	mov	x0, x21
    5440:	97ffff3c 	bl	5130 <_Unwind_Resume@plt>

0000000000005444 <_ZN3std3sys3pal6common14small_c_string24run_with_cstr_allocating17h9baeb4e655b87d8fE>:
    5444:	d10143ff 	sub	sp, sp, #0x50
    5448:	a9027bfd 	stp	x29, x30, [sp, #32]
    544c:	a90357f6 	stp	x22, x21, [sp, #48]
    5450:	a9044ff4 	stp	x20, x19, [sp, #64]
    5454:	910083fd 	add	x29, sp, #0x20
    5458:	aa0003f5 	mov	x21, x0
    545c:	910003e8 	mov	x8, sp
    5460:	aa0103e0 	mov	x0, x1
    5464:	aa0203e1 	mov	x1, x2
    5468:	aa0303f6 	mov	x22, x3
    546c:	9400cdfc 	bl	38c5c <_ZN72_$LT$$RF$str$u20$as$u20$alloc..ffi..c_str..CString..new..SpecNewImpl$GT$13spec_new_impl17h97fe85ceecb538fcE>
    5470:	f94003e1 	ldr	x1, [sp]
    5474:	d2f00008 	mov	x8, #0x8000000000000000    	// #-9223372036854775808
    5478:	eb08003f 	cmp	x1, x8
    547c:	54000181 	b.ne	54ac <_ZN3std3sys3pal6common14small_c_string24run_with_cstr_allocating17h9baeb4e655b87d8fE+0x68>  // b.any
    5480:	a940d3f3 	ldp	x19, x20, [sp, #8]
    5484:	aa1503e8 	mov	x8, x21
    5488:	52800020 	mov	w0, #0x1                   	// #1
    548c:	aa1303e1 	mov	x1, x19
    5490:	aa1403e2 	mov	x2, x20
    5494:	d63f02c0 	blr	x22
    5498:	3900027f 	strb	wzr, [x19]
    549c:	b4000194 	cbz	x20, 54cc <_ZN3std3sys3pal6common14small_c_string24run_with_cstr_allocating17h9baeb4e655b87d8fE+0x88>
    54a0:	aa1303e0 	mov	x0, x19
    54a4:	aa1403e1 	mov	x1, x20
    54a8:	14000007 	b	54c4 <_ZN3std3sys3pal6common14small_c_string24run_with_cstr_allocating17h9baeb4e655b87d8fE+0x80>
    54ac:	b00002e8 	adrp	x8, 62000 <GCC_except_table0+0x108dc>
    54b0:	91278108 	add	x8, x8, #0x9e0
    54b4:	52800049 	mov	w9, #0x2                   	// #2
    54b8:	a90022a9 	stp	x9, x8, [x21]
    54bc:	b4000081 	cbz	x1, 54cc <_ZN3std3sys3pal6common14small_c_string24run_with_cstr_allocating17h9baeb4e655b87d8fE+0x88>
    54c0:	f94007e0 	ldr	x0, [sp, #8]
    54c4:	52800022 	mov	w2, #0x1                   	// #1
    54c8:	9400126a 	bl	9e70 <_RNvCsiGVaDesi5rv_7___rustc14___rust_dealloc>
    54cc:	a9444ff4 	ldp	x20, x19, [sp, #64]
    54d0:	a94357f6 	ldp	x22, x21, [sp, #48]
    54d4:	a9427bfd 	ldp	x29, x30, [sp, #32]
    54d8:	910143ff 	add	sp, sp, #0x50
    54dc:	d65f03c0 	ret
    54e0:	aa0003f5 	mov	x21, x0
    54e4:	3900027f 	strb	wzr, [x19]
    54e8:	b40000b4 	cbz	x20, 54fc <_ZN3std3sys3pal6common14small_c_string24run_with_cstr_allocating17h9baeb4e655b87d8fE+0xb8>
    54ec:	aa1303e0 	mov	x0, x19
    54f0:	aa1403e1 	mov	x1, x20
    54f4:	52800022 	mov	w2, #0x1                   	// #1
    54f8:	9400125e 	bl	9e70 <_RNvCsiGVaDesi5rv_7___rustc14___rust_dealloc>
    54fc:	aa1503e0 	mov	x0, x21
    5500:	97ffff0c 	bl	5130 <_Unwind_Resume@plt>

0000000000005504 <_ZN3std3sys3pal6common14small_c_string24run_with_cstr_allocating17hd34b024646a5ba6aE>:
    5504:	d10143ff 	sub	sp, sp, #0x50
    5508:	a9027bfd 	stp	x29, x30, [sp, #32]
    550c:	a90357f6 	stp	x22, x21, [sp, #48]
    5510:	a9044ff4 	stp	x20, x19, [sp, #64]
    5514:	910083fd 	add	x29, sp, #0x20
    5518:	aa0003f5 	mov	x21, x0
    551c:	910003e8 	mov	x8, sp
    5520:	aa0103e0 	mov	x0, x1
    5524:	aa0203e1 	mov	x1, x2
    5528:	aa0303f6 	mov	x22, x3
    552c:	9400cdcc 	bl	38c5c <_ZN72_$LT$$RF$str$u20$as$u20$alloc..ffi..c_str..CString..new..SpecNewImpl$GT$13spec_new_impl17h97fe85ceecb538fcE>
    5530:	f94003e1 	ldr	x1, [sp]
    5534:	d2f00008 	mov	x8, #0x8000000000000000    	// #-9223372036854775808
    5538:	eb08003f 	cmp	x1, x8
    553c:	54000161 	b.ne	5568 <_ZN3std3sys3pal6common14small_c_string24run_with_cstr_allocating17hd34b024646a5ba6aE+0x64>  // b.any
    5540:	a940d3f3 	ldp	x19, x20, [sp, #8]
    5544:	aa1503e0 	mov	x0, x21
    5548:	aa1303e1 	mov	x1, x19
    554c:	aa1603e2 	mov	x2, x22
    5550:	94003d58 	bl	14ab0 <_ZN3std3sys2fs4unix4File6open_c17h4d00dc971e73a6deE>
    5554:	3900027f 	strb	wzr, [x19]
    5558:	b40001b4 	cbz	x20, 558c <_ZN3std3sys3pal6common14small_c_string24run_with_cstr_allocating17hd34b024646a5ba6aE+0x88>
    555c:	aa1303e0 	mov	x0, x19
    5560:	aa1403e1 	mov	x1, x20
    5564:	14000008 	b	5584 <_ZN3std3sys3pal6common14small_c_string24run_with_cstr_allocating17hd34b024646a5ba6aE+0x80>
    5568:	b00002e8 	adrp	x8, 62000 <GCC_except_table0+0x108dc>
    556c:	91278108 	add	x8, x8, #0x9e0
    5570:	f90006a8 	str	x8, [x21, #8]
    5574:	52800028 	mov	w8, #0x1                   	// #1
    5578:	b90002a8 	str	w8, [x21]
    557c:	b4000081 	cbz	x1, 558c <_ZN3std3sys3pal6common14small_c_string24run_with_cstr_allocating17hd34b024646a5ba6aE+0x88>
    5580:	f94007e0 	ldr	x0, [sp, #8]
    5584:	52800022 	mov	w2, #0x1                   	// #1
    5588:	9400123a 	bl	9e70 <_RNvCsiGVaDesi5rv_7___rustc14___rust_dealloc>
    558c:	a9444ff4 	ldp	x20, x19, [sp, #64]
    5590:	a94357f6 	ldp	x22, x21, [sp, #48]
    5594:	a9427bfd 	ldp	x29, x30, [sp, #32]
    5598:	910143ff 	add	sp, sp, #0x50
    559c:	d65f03c0 	ret
    55a0:	aa0003f5 	mov	x21, x0
    55a4:	3900027f 	strb	wzr, [x19]
    55a8:	b40000b4 	cbz	x20, 55bc <_ZN3std3sys3pal6common14small_c_string24run_with_cstr_allocating17hd34b024646a5ba6aE+0xb8>
    55ac:	aa1303e0 	mov	x0, x19
    55b0:	aa1403e1 	mov	x1, x20
    55b4:	52800022 	mov	w2, #0x1                   	// #1
    55b8:	9400122e 	bl	9e70 <_RNvCsiGVaDesi5rv_7___rustc14___rust_dealloc>
    55bc:	aa1503e0 	mov	x0, x21
    55c0:	97fffedc 	bl	5130 <_Unwind_Resume@plt>

00000000000055c4 <_ZN3std3sys3pal6common14small_c_string24run_with_cstr_allocating17he6852b514412aa9dE>:
    55c4:	d10143ff 	sub	sp, sp, #0x50
    55c8:	a9027bfd 	stp	x29, x30, [sp, #32]
    55cc:	a90357f6 	stp	x22, x21, [sp, #48]
    55d0:	a9044ff4 	stp	x20, x19, [sp, #64]
    55d4:	910083fd 	add	x29, sp, #0x20
    55d8:	aa0003f6 	mov	x22, x0
    55dc:	910003e8 	mov	x8, sp
    55e0:	aa0103e0 	mov	x0, x1
    55e4:	aa0203e1 	mov	x1, x2
    55e8:	aa0303f5 	mov	x21, x3
    55ec:	9400cd9c 	bl	38c5c <_ZN72_$LT$$RF$str$u20$as$u20$alloc..ffi..c_str..CString..new..SpecNewImpl$GT$13spec_new_impl17h97fe85ceecb538fcE>
    55f0:	f94003e1 	ldr	x1, [sp]
    55f4:	d2f00008 	mov	x8, #0x8000000000000000    	// #-9223372036854775808
    55f8:	eb08003f 	cmp	x1, x8
    55fc:	54000181 	b.ne	562c <_ZN3std3sys3pal6common14small_c_string24run_with_cstr_allocating17he6852b514412aa9dE+0x68>  // b.any
    5600:	a940d3f3 	ldp	x19, x20, [sp, #8]
    5604:	aa1603e8 	mov	x8, x22
    5608:	52800020 	mov	w0, #0x1                   	// #1
    560c:	aa1303e1 	mov	x1, x19
    5610:	aa1403e2 	mov	x2, x20
    5614:	d63f02a0 	blr	x21
    5618:	3900027f 	strb	wzr, [x19]
    561c:	b4000174 	cbz	x20, 5648 <_ZN3std3sys3pal6common14small_c_string24run_with_cstr_allocating17he6852b514412aa9dE+0x84>
    5620:	aa1303e0 	mov	x0, x19
    5624:	aa1403e1 	mov	x1, x20
    5628:	14000006 	b	5640 <_ZN3std3sys3pal6common14small_c_string24run_with_cstr_allocating17he6852b514412aa9dE+0x7c>
    562c:	b00002e9 	adrp	x9, 62000 <GCC_except_table0+0x108dc>
    5630:	91278129 	add	x9, x9, #0x9e0
    5634:	a90026c8 	stp	x8, x9, [x22]
    5638:	b4000081 	cbz	x1, 5648 <_ZN3std3sys3pal6common14small_c_string24run_with_cstr_allocating17he6852b514412aa9dE+0x84>
    563c:	f94007e0 	ldr	x0, [sp, #8]
    5640:	52800022 	mov	w2, #0x1                   	// #1
    5644:	9400120b 	bl	9e70 <_RNvCsiGVaDesi5rv_7___rustc14___rust_dealloc>
    5648:	a9444ff4 	ldp	x20, x19, [sp, #64]
    564c:	a94357f6 	ldp	x22, x21, [sp, #48]
    5650:	a9427bfd 	ldp	x29, x30, [sp, #32]
    5654:	910143ff 	add	sp, sp, #0x50
    5658:	d65f03c0 	ret
    565c:	aa0003f5 	mov	x21, x0
    5660:	3900027f 	strb	wzr, [x19]
    5664:	b40000b4 	cbz	x20, 5678 <_ZN3std3sys3pal6common14small_c_string24run_with_cstr_allocating17he6852b514412aa9dE+0xb4>
    5668:	aa1303e0 	mov	x0, x19
    566c:	aa1403e1 	mov	x1, x20
    5670:	52800022 	mov	w2, #0x1                   	// #1
    5674:	940011ff 	bl	9e70 <_RNvCsiGVaDesi5rv_7___rustc14___rust_dealloc>
    5678:	aa1503e0 	mov	x0, x21
    567c:	97fffead 	bl	5130 <_Unwind_Resume@plt>

0000000000005680 <_ZN3std3sys4sync4once5futex4Once4call17hd98489a98f92768bE>:
    5680:	d10203ff 	sub	sp, sp, #0x80
    5684:	a9037bfd 	stp	x29, x30, [sp, #48]
    5688:	f90023f9 	str	x25, [sp, #64]
    568c:	a9055ff8 	stp	x24, x23, [sp, #80]
    5690:	a90657f6 	stp	x22, x21, [sp, #96]
    5694:	a9074ff4 	stp	x20, x19, [sp, #112]
    5698:	9100c3fd 	add	x29, sp, #0x30
    569c:	910003e8 	mov	x8, sp
    56a0:	88dffc17 	ldar	w23, [x0]
    56a4:	aa0303f5 	mov	x21, x3
    56a8:	aa0203f4 	mov	x20, x2
    56ac:	aa0003f3 	mov	x19, x0
    56b0:	91002119 	add	x25, x8, #0x8
    56b4:	37000141 	tbnz	w1, #0, 56dc <_ZN3std3sys4sync4once5futex4Once4call17hd98489a98f92768bE+0x5c>
    56b8:	aa0403f6 	mov	x22, x4
    56bc:	14000048 	b	57dc <_ZN3std3sys4sync4once5futex4Once4call17hd98489a98f92768bE+0x15c>
    56c0:	32000101 	orr	w1, w8, #0x1
    56c4:	2a1703e0 	mov	w0, w23
    56c8:	aa1303e2 	mov	x2, x19
    56cc:	9400ee65 	bl	41060 <__aarch64_cas4_acq>
    56d0:	6b17001f 	cmp	w0, w23
    56d4:	2a0003f7 	mov	w23, w0
    56d8:	54000500 	b.eq	5778 <_ZN3std3sys4sync4once5futex4Once4call17hd98489a98f92768bE+0xf8>  // b.none
    56dc:	120006f6 	and	w22, w23, #0x3
    56e0:	51000ac8 	sub	w8, w22, #0x2
    56e4:	7100091f 	cmp	w8, #0x2
    56e8:	121e02e8 	and	w8, w23, #0x4
    56ec:	54fffea3 	b.cc	56c0 <_ZN3std3sys4sync4once5futex4Once4call17hd98489a98f92768bE+0x40>  // b.lo, b.ul, b.last
    56f0:	710006df 	cmp	w22, #0x1
    56f4:	54000641 	b.ne	57bc <_ZN3std3sys4sync4once5futex4Once4call17hd98489a98f92768bE+0x13c>  // b.any
    56f8:	35000148 	cbnz	w8, 5720 <_ZN3std3sys4sync4once5futex4Once4call17hd98489a98f92768bE+0xa0>
    56fc:	321e02f6 	orr	w22, w23, #0x4
    5700:	52800020 	mov	w0, #0x1                   	// #1
    5704:	aa1303e2 	mov	x2, x19
    5708:	2a1603e1 	mov	w1, w22
    570c:	9400ee55 	bl	41060 <__aarch64_cas4_acq>
    5710:	2a0003f7 	mov	w23, w0
    5714:	7100041f 	cmp	w0, #0x1
    5718:	54fffe21 	b.ne	56dc <_ZN3std3sys4sync4once5futex4Once4call17hd98489a98f92768bE+0x5c>  // b.any
    571c:	14000002 	b	5724 <_ZN3std3sys4sync4once5futex4Once4call17hd98489a98f92768bE+0xa4>
    5720:	2a1703f6 	mov	w22, w23
    5724:	f90003ff 	str	xzr, [sp]
    5728:	b9400268 	ldr	w8, [x19]
    572c:	6b16011f 	cmp	w8, w22
    5730:	54000201 	b.ne	5770 <_ZN3std3sys4sync4once5futex4Once4call17hd98489a98f92768bE+0xf0>  // b.any
    5734:	b94003e8 	ldr	w8, [sp]
    5738:	52800c40 	mov	w0, #0x62                  	// #98
    573c:	aa1303e1 	mov	x1, x19
    5740:	52801122 	mov	w2, #0x89                  	// #137
    5744:	2a1603e3 	mov	w3, w22
    5748:	aa1f03e5 	mov	x5, xzr
    574c:	7100011f 	cmp	w8, #0x0
    5750:	12800006 	mov	w6, #0xffffffff            	// #-1
    5754:	9a9f1324 	csel	x4, x25, xzr, ne  // ne = any
    5758:	97fffe7e 	bl	5150 <syscall@plt>
    575c:	b6f800a0 	tbz	x0, #63, 5770 <_ZN3std3sys4sync4once5futex4Once4call17hd98489a98f92768bE+0xf0>
    5760:	97fffe68 	bl	5100 <__errno_location@plt>
    5764:	b9400008 	ldr	w8, [x0]
    5768:	7100111f 	cmp	w8, #0x4
    576c:	54fffde0 	b.eq	5728 <_ZN3std3sys4sync4once5futex4Once4call17hd98489a98f92768bE+0xa8>  // b.none
    5770:	88dffe77 	ldar	w23, [x19]
    5774:	17ffffda 	b	56dc <_ZN3std3sys4sync4once5futex4Once4call17hd98489a98f92768bE+0x5c>
    5778:	71000adf 	cmp	w22, #0x2
    577c:	1a9f17e8 	cset	w8, eq  // eq = none
    5780:	f94012a9 	ldr	x9, [x21, #32]
    5784:	b90003ff 	str	wzr, [sp]
    5788:	390013e8 	strb	w8, [sp, #4]
    578c:	910003e1 	mov	x1, sp
    5790:	aa1403e0 	mov	x0, x20
    5794:	d63f0120 	blr	x9
    5798:	b94003e0 	ldr	w0, [sp]
    579c:	aa1303e1 	mov	x1, x19
    57a0:	9400ee78 	bl	41180 <__aarch64_swp4_rel>
    57a4:	361000c0 	tbz	w0, #2, 57bc <_ZN3std3sys4sync4once5futex4Once4call17hd98489a98f92768bE+0x13c>
    57a8:	52800c40 	mov	w0, #0x62                  	// #98
    57ac:	aa1303e1 	mov	x1, x19
    57b0:	52801022 	mov	w2, #0x81                  	// #129
    57b4:	12b00003 	mov	w3, #0x7fffffff            	// #2147483647
    57b8:	97fffe66 	bl	5150 <syscall@plt>
    57bc:	a9474ff4 	ldp	x20, x19, [sp, #112]
    57c0:	f94023f9 	ldr	x25, [sp, #64]
    57c4:	a94657f6 	ldp	x22, x21, [sp, #96]
    57c8:	a9455ff8 	ldp	x24, x23, [sp, #80]
    57cc:	a9437bfd 	ldp	x29, x30, [sp, #48]
    57d0:	910203ff 	add	sp, sp, #0x80
    57d4:	d65f03c0 	ret
    57d8:	88dffe77 	ldar	w23, [x19]
    57dc:	120006e9 	and	w9, w23, #0x3
    57e0:	121e02e8 	and	w8, w23, #0x4
    57e4:	7100053f 	cmp	w9, #0x1
    57e8:	5400018c 	b.gt	5818 <_ZN3std3sys4sync4once5futex4Once4call17hd98489a98f92768bE+0x198>
    57ec:	54fffe81 	b.ne	57bc <_ZN3std3sys4sync4once5futex4Once4call17hd98489a98f92768bE+0x13c>  // b.any
    57f0:	350002a8 	cbnz	w8, 5844 <_ZN3std3sys4sync4once5futex4Once4call17hd98489a98f92768bE+0x1c4>
    57f4:	321e02f8 	orr	w24, w23, #0x4
    57f8:	52800020 	mov	w0, #0x1                   	// #1
    57fc:	aa1303e2 	mov	x2, x19
    5800:	2a1803e1 	mov	w1, w24
    5804:	9400ee17 	bl	41060 <__aarch64_cas4_acq>
    5808:	2a0003f7 	mov	w23, w0
    580c:	7100041f 	cmp	w0, #0x1
    5810:	54fffe61 	b.ne	57dc <_ZN3std3sys4sync4once5futex4Once4call17hd98489a98f92768bE+0x15c>  // b.any
    5814:	1400000d 	b	5848 <_ZN3std3sys4sync4once5futex4Once4call17hd98489a98f92768bE+0x1c8>
    5818:	71000d3f 	cmp	w9, #0x3
    581c:	540003e1 	b.ne	5898 <_ZN3std3sys4sync4once5futex4Once4call17hd98489a98f92768bE+0x218>  // b.any
    5820:	32000101 	orr	w1, w8, #0x1
    5824:	2a1703e0 	mov	w0, w23
    5828:	aa1303e2 	mov	x2, x19
    582c:	9400ee0d 	bl	41060 <__aarch64_cas4_acq>
    5830:	2a1f03e8 	mov	w8, wzr
    5834:	6b17001f 	cmp	w0, w23
    5838:	2a0003f7 	mov	w23, w0
    583c:	54fffd01 	b.ne	57dc <_ZN3std3sys4sync4once5futex4Once4call17hd98489a98f92768bE+0x15c>  // b.any
    5840:	17ffffd0 	b	5780 <_ZN3std3sys4sync4once5futex4Once4call17hd98489a98f92768bE+0x100>
    5844:	2a1703f8 	mov	w24, w23
    5848:	f90003ff 	str	xzr, [sp]
    584c:	b9400268 	ldr	w8, [x19]
    5850:	6b18011f 	cmp	w8, w24
    5854:	54fffc21 	b.ne	57d8 <_ZN3std3sys4sync4once5futex4Once4call17hd98489a98f92768bE+0x158>  // b.any
    5858:	b94003e8 	ldr	w8, [sp]
    585c:	52800c40 	mov	w0, #0x62                  	// #98
    5860:	aa1303e1 	mov	x1, x19
    5864:	52801122 	mov	w2, #0x89                  	// #137
    5868:	2a1803e3 	mov	w3, w24
    586c:	aa1f03e5 	mov	x5, xzr
    5870:	7100011f 	cmp	w8, #0x0
    5874:	12800006 	mov	w6, #0xffffffff            	// #-1
    5878:	9a9f1324 	csel	x4, x25, xzr, ne  // ne = any
    587c:	97fffe35 	bl	5150 <syscall@plt>
    5880:	b6fffac0 	tbz	x0, #63, 57d8 <_ZN3std3sys4sync4once5futex4Once4call17hd98489a98f92768bE+0x158>
    5884:	97fffe1f 	bl	5100 <__errno_location@plt>
    5888:	b9400008 	ldr	w8, [x0]
    588c:	7100111f 	cmp	w8, #0x4
    5890:	54fffde0 	b.eq	584c <_ZN3std3sys4sync4once5futex4Once4call17hd98489a98f92768bE+0x1cc>  // b.none
    5894:	17ffffd1 	b	57d8 <_ZN3std3sys4sync4once5futex4Once4call17hd98489a98f92768bE+0x158>
    5898:	b00002e8 	adrp	x8, 62000 <GCC_except_table0+0x108dc>
    589c:	9127e108 	add	x8, x8, #0x9f8
    58a0:	52800029 	mov	w9, #0x1                   	// #1
    58a4:	a90027e8 	stp	x8, x9, [sp]
    58a8:	52800108 	mov	w8, #0x8                   	// #8
    58ac:	910003e0 	mov	x0, sp
    58b0:	aa1603e1 	mov	x1, x22
    58b4:	a901ffff 	stp	xzr, xzr, [sp, #24]
    58b8:	f9000be8 	str	x8, [sp, #16]
    58bc:	9400103c 	bl	99ac <_ZN4core9panicking9panic_fmt17ha1b8843c59fc39d4E>
    58c0:	aa0003f4 	mov	x20, x0
    58c4:	52800040 	mov	w0, #0x2                   	// #2
    58c8:	aa1303e1 	mov	x1, x19
    58cc:	9400ee2d 	bl	41180 <__aarch64_swp4_rel>
    58d0:	361000c0 	tbz	w0, #2, 58e8 <_ZN3std3sys4sync4once5futex4Once4call17hd98489a98f92768bE+0x268>
    58d4:	52800c40 	mov	w0, #0x62                  	// #98
    58d8:	aa1303e1 	mov	x1, x19
    58dc:	52801022 	mov	w2, #0x81                  	// #129
    58e0:	12b00003 	mov	w3, #0x7fffffff            	// #2147483647
    58e4:	97fffe1b 	bl	5150 <syscall@plt>
    58e8:	aa1403e0 	mov	x0, x20
    58ec:	97fffe11 	bl	5130 <_Unwind_Resume@plt>

00000000000058f0 <_ZN3std3sys4sync5mutex5futex5Mutex14lock_contended17h16b56bbe4514d057E>:
    58f0:	d10103ff 	sub	sp, sp, #0x40
    58f4:	a9027bfd 	stp	x29, x30, [sp, #32]
    58f8:	a9034ff4 	stp	x20, x19, [sp, #48]
    58fc:	910083fd 	add	x29, sp, #0x20
    5900:	aa0003f3 	mov	x19, x0
    5904:	b9400000 	ldr	w0, [x0]
    5908:	7100041f 	cmp	w0, #0x1
    590c:	54000121 	b.ne	5930 <_ZN3std3sys4sync5mutex5futex5Mutex14lock_contended17h16b56bbe4514d057E+0x40>  // b.any
    5910:	12800c49 	mov	w9, #0xffffff9d            	// #-99
    5914:	d5033fdf 	isb
    5918:	b9400260 	ldr	w0, [x19]
    591c:	7100041f 	cmp	w0, #0x1
    5920:	54000081 	b.ne	5930 <_ZN3std3sys4sync5mutex5futex5Mutex14lock_contended17h16b56bbe4514d057E+0x40>  // b.any
    5924:	2a0903e8 	mov	w8, w9
    5928:	11000529 	add	w9, w9, #0x1
    592c:	35ffff48 	cbnz	w8, 5914 <_ZN3std3sys4sync5mutex5futex5Mutex14lock_contended17h16b56bbe4514d057E+0x24>
    5930:	35000140 	cbnz	w0, 5958 <_ZN3std3sys4sync5mutex5futex5Mutex14lock_contended17h16b56bbe4514d057E+0x68>
    5934:	52800021 	mov	w1, #0x1                   	// #1
    5938:	aa1303e2 	mov	x2, x19
    593c:	9400edc9 	bl	41060 <__aarch64_cas4_acq>
    5940:	7100001f 	cmp	w0, #0x0
    5944:	540000a1 	b.ne	5958 <_ZN3std3sys4sync5mutex5futex5Mutex14lock_contended17h16b56bbe4514d057E+0x68>  // b.any
    5948:	a9434ff4 	ldp	x20, x19, [sp, #48]
    594c:	a9427bfd 	ldp	x29, x30, [sp, #32]
    5950:	910103ff 	add	sp, sp, #0x40
    5954:	d65f03c0 	ret
    5958:	910023e8 	add	x8, sp, #0x8
    595c:	91002114 	add	x20, x8, #0x8
    5960:	7100081f 	cmp	w0, #0x2
    5964:	540000a0 	b.eq	5978 <_ZN3std3sys4sync5mutex5futex5Mutex14lock_contended17h16b56bbe4514d057E+0x88>  // b.none
    5968:	52800040 	mov	w0, #0x2                   	// #2
    596c:	aa1303e1 	mov	x1, x19
    5970:	9400edf8 	bl	41150 <__aarch64_swp4_acq>
    5974:	34fffea0 	cbz	w0, 5948 <_ZN3std3sys4sync5mutex5futex5Mutex14lock_contended17h16b56bbe4514d057E+0x58>
    5978:	f90007ff 	str	xzr, [sp, #8]
    597c:	b9400268 	ldr	w8, [x19]
    5980:	7100091f 	cmp	w8, #0x2
    5984:	54000201 	b.ne	59c4 <_ZN3std3sys4sync5mutex5futex5Mutex14lock_contended17h16b56bbe4514d057E+0xd4>  // b.any
    5988:	b9400be8 	ldr	w8, [sp, #8]
    598c:	52800c40 	mov	w0, #0x62                  	// #98
    5990:	aa1303e1 	mov	x1, x19
    5994:	52801122 	mov	w2, #0x89                  	// #137
    5998:	52800043 	mov	w3, #0x2                   	// #2
    599c:	aa1f03e5 	mov	x5, xzr
    59a0:	7100011f 	cmp	w8, #0x0
    59a4:	12800006 	mov	w6, #0xffffffff            	// #-1
    59a8:	9a9f1284 	csel	x4, x20, xzr, ne  // ne = any
    59ac:	97fffde9 	bl	5150 <syscall@plt>
    59b0:	b6f800a0 	tbz	x0, #63, 59c4 <_ZN3std3sys4sync5mutex5futex5Mutex14lock_contended17h16b56bbe4514d057E+0xd4>
    59b4:	97fffdd3 	bl	5100 <__errno_location@plt>
    59b8:	b9400008 	ldr	w8, [x0]
    59bc:	7100111f 	cmp	w8, #0x4
    59c0:	54fffde0 	b.eq	597c <_ZN3std3sys4sync5mutex5futex5Mutex14lock_contended17h16b56bbe4514d057E+0x8c>  // b.none
    59c4:	b9400260 	ldr	w0, [x19]
    59c8:	7100041f 	cmp	w0, #0x1
    59cc:	54fffca1 	b.ne	5960 <_ZN3std3sys4sync5mutex5futex5Mutex14lock_contended17h16b56bbe4514d057E+0x70>  // b.any
    59d0:	12800c49 	mov	w9, #0xffffff9d            	// #-99
    59d4:	2a0903e8 	mov	w8, w9
    59d8:	d5033fdf 	isb
    59dc:	b9400260 	ldr	w0, [x19]
    59e0:	11000529 	add	w9, w9, #0x1
    59e4:	7100041f 	cmp	w0, #0x1
    59e8:	54fffbc1 	b.ne	5960 <_ZN3std3sys4sync5mutex5futex5Mutex14lock_contended17h16b56bbe4514d057E+0x70>  // b.any
    59ec:	35ffff48 	cbnz	w8, 59d4 <_ZN3std3sys4sync5mutex5futex5Mutex14lock_contended17h16b56bbe4514d057E+0xe4>
    59f0:	17ffffdc 	b	5960 <_ZN3std3sys4sync5mutex5futex5Mutex14lock_contended17h16b56bbe4514d057E+0x70>

00000000000059f4 <_ZN3std3sys4sync6rwlock5futex6RwLock14read_contended17he64370b57fbdff87E>:
    59f4:	d10243ff 	sub	sp, sp, #0x90
    59f8:	a9037bfd 	stp	x29, x30, [sp, #48]
    59fc:	a9046ffc 	stp	x28, x27, [sp, #64]
    5a00:	a90567fa 	stp	x26, x25, [sp, #80]
    5a04:	a9065ff8 	stp	x24, x23, [sp, #96]
    5a08:	a90757f6 	stp	x22, x21, [sp, #112]
    5a0c:	a9084ff4 	stp	x20, x19, [sp, #128]
    5a10:	9100c3fd 	add	x29, sp, #0x30
    5a14:	b9400014 	ldr	w20, [x0]
    5a18:	12b80016 	mov	w22, #0x3fffffff            	// #1073741823
    5a1c:	aa0003f3 	mov	x19, x0
    5a20:	6b16029f 	cmp	w20, w22
    5a24:	54000121 	b.ne	5a48 <_ZN3std3sys4sync6rwlock5futex6RwLock14read_contended17he64370b57fbdff87E+0x54>  // b.any
    5a28:	12800c49 	mov	w9, #0xffffff9d            	// #-99
    5a2c:	d5033fdf 	isb
    5a30:	b9400274 	ldr	w20, [x19]
    5a34:	6b16029f 	cmp	w20, w22
    5a38:	54000081 	b.ne	5a48 <_ZN3std3sys4sync6rwlock5futex6RwLock14read_contended17he64370b57fbdff87E+0x54>  // b.any
    5a3c:	2a0903e8 	mov	w8, w9
    5a40:	11000529 	add	w9, w9, #0x1
    5a44:	35ffff48 	cbnz	w8, 5a2c <_ZN3std3sys4sync6rwlock5futex6RwLock14read_contended17he64370b57fbdff87E+0x38>
    5a48:	910003e8 	mov	x8, sp
    5a4c:	52800057 	mov	w23, #0x2                   	// #2
    5a50:	529fffba 	mov	w26, #0xfffd                	// #65533
    5a54:	2a1f03fc 	mov	w28, wzr
    5a58:	72b80017 	movk	w23, #0xc000, lsl #16
    5a5c:	91002118 	add	x24, x8, #0x8
    5a60:	32020ff9 	mov	w25, #0xc0000003            	// #-1073741821
    5a64:	72a7fffa 	movk	w26, #0x3fff, lsl #16
    5a68:	321f73fb 	mov	w27, #0x3ffffffe            	// #1073741822
    5a6c:	14000008 	b	5a8c <_ZN3std3sys4sync6rwlock5futex6RwLock14read_contended17he64370b57fbdff87E+0x98>
    5a70:	11000681 	add	w1, w20, #0x1
    5a74:	2a1403e0 	mov	w0, w20
    5a78:	aa1303e2 	mov	x2, x19
    5a7c:	9400ed79 	bl	41060 <__aarch64_cas4_acq>
    5a80:	6b14001f 	cmp	w0, w20
    5a84:	54000700 	b.eq	5b64 <_ZN3std3sys4sync6rwlock5futex6RwLock14read_contended17he64370b57fbdff87E+0x170>  // b.none
    5a88:	2a0003f4 	mov	w20, w0
    5a8c:	12007688 	and	w8, w20, #0x3fffffff
    5a90:	360000bc 	tbz	w28, #0, 5aa4 <_ZN3std3sys4sync6rwlock5futex6RwLock14read_contended17he64370b57fbdff87E+0xb0>
    5a94:	37f00094 	tbnz	w20, #30, 5aa4 <_ZN3std3sys4sync6rwlock5futex6RwLock14read_contended17he64370b57fbdff87E+0xb0>
    5a98:	0b170109 	add	w9, w8, w23
    5a9c:	6b19013f 	cmp	w9, w25
    5aa0:	54fffe82 	b.cs	5a70 <_ZN3std3sys4sync6rwlock5futex6RwLock14read_contended17he64370b57fbdff87E+0x7c>  // b.hs, b.nlast
    5aa4:	6b1a011f 	cmp	w8, w26
    5aa8:	54000068 	b.hi	5ab4 <_ZN3std3sys4sync6rwlock5futex6RwLock14read_contended17he64370b57fbdff87E+0xc0>  // b.pmore
    5aac:	37f00054 	tbnz	w20, #30, 5ab4 <_ZN3std3sys4sync6rwlock5futex6RwLock14read_contended17he64370b57fbdff87E+0xc0>
    5ab0:	36fffe14 	tbz	w20, #31, 5a70 <_ZN3std3sys4sync6rwlock5futex6RwLock14read_contended17he64370b57fbdff87E+0x7c>
    5ab4:	6b1b011f 	cmp	w8, w27
    5ab8:	54000660 	b.eq	5b84 <_ZN3std3sys4sync6rwlock5futex6RwLock14read_contended17he64370b57fbdff87E+0x190>  // b.none
    5abc:	37f00134 	tbnz	w20, #30, 5ae0 <_ZN3std3sys4sync6rwlock5futex6RwLock14read_contended17he64370b57fbdff87E+0xec>
    5ac0:	32020295 	orr	w21, w20, #0x40000000
    5ac4:	2a1403e0 	mov	w0, w20
    5ac8:	aa1303e2 	mov	x2, x19
    5acc:	2a1503e1 	mov	w1, w21
    5ad0:	9400ed58 	bl	41030 <__aarch64_cas4_relax>
    5ad4:	6b14001f 	cmp	w0, w20
    5ad8:	54fffd81 	b.ne	5a88 <_ZN3std3sys4sync6rwlock5futex6RwLock14read_contended17he64370b57fbdff87E+0x94>  // b.any
    5adc:	2a1503f4 	mov	w20, w21
    5ae0:	f90003ff 	str	xzr, [sp]
    5ae4:	b9400268 	ldr	w8, [x19]
    5ae8:	6b14011f 	cmp	w8, w20
    5aec:	54000201 	b.ne	5b2c <_ZN3std3sys4sync6rwlock5futex6RwLock14read_contended17he64370b57fbdff87E+0x138>  // b.any
    5af0:	b94003e8 	ldr	w8, [sp]
    5af4:	52800c40 	mov	w0, #0x62                  	// #98
    5af8:	aa1303e1 	mov	x1, x19
    5afc:	52801122 	mov	w2, #0x89                  	// #137
    5b00:	2a1403e3 	mov	w3, w20
    5b04:	aa1f03e5 	mov	x5, xzr
    5b08:	7100011f 	cmp	w8, #0x0
    5b0c:	12800006 	mov	w6, #0xffffffff            	// #-1
    5b10:	9a9f1304 	csel	x4, x24, xzr, ne  // ne = any
    5b14:	97fffd8f 	bl	5150 <syscall@plt>
    5b18:	b6f800a0 	tbz	x0, #63, 5b2c <_ZN3std3sys4sync6rwlock5futex6RwLock14read_contended17he64370b57fbdff87E+0x138>
    5b1c:	97fffd79 	bl	5100 <__errno_location@plt>
    5b20:	b9400008 	ldr	w8, [x0]
    5b24:	7100111f 	cmp	w8, #0x4
    5b28:	54fffde0 	b.eq	5ae4 <_ZN3std3sys4sync6rwlock5futex6RwLock14read_contended17he64370b57fbdff87E+0xf0>  // b.none
    5b2c:	b9400274 	ldr	w20, [x19]
    5b30:	5280003c 	mov	w28, #0x1                   	// #1
    5b34:	6b16029f 	cmp	w20, w22
    5b38:	54fffaa1 	b.ne	5a8c <_ZN3std3sys4sync6rwlock5futex6RwLock14read_contended17he64370b57fbdff87E+0x98>  // b.any
    5b3c:	12800c49 	mov	w9, #0xffffff9d            	// #-99
    5b40:	2a0903e8 	mov	w8, w9
    5b44:	d5033fdf 	isb
    5b48:	b9400274 	ldr	w20, [x19]
    5b4c:	11000529 	add	w9, w9, #0x1
    5b50:	5280003c 	mov	w28, #0x1                   	// #1
    5b54:	6b16029f 	cmp	w20, w22
    5b58:	54fff9a1 	b.ne	5a8c <_ZN3std3sys4sync6rwlock5futex6RwLock14read_contended17he64370b57fbdff87E+0x98>  // b.any
    5b5c:	35ffff28 	cbnz	w8, 5b40 <_ZN3std3sys4sync6rwlock5futex6RwLock14read_contended17he64370b57fbdff87E+0x14c>
    5b60:	17ffffcb 	b	5a8c <_ZN3std3sys4sync6rwlock5futex6RwLock14read_contended17he64370b57fbdff87E+0x98>
    5b64:	a9484ff4 	ldp	x20, x19, [sp, #128]
    5b68:	a94757f6 	ldp	x22, x21, [sp, #112]
    5b6c:	a9465ff8 	ldp	x24, x23, [sp, #96]
    5b70:	a94567fa 	ldp	x26, x25, [sp, #80]
    5b74:	a9446ffc 	ldp	x28, x27, [sp, #64]
    5b78:	a9437bfd 	ldp	x29, x30, [sp, #48]
    5b7c:	910243ff 	add	sp, sp, #0x90
    5b80:	d65f03c0 	ret
    5b84:	b00002e8 	adrp	x8, 62000 <GCC_except_table0+0x108dc>
    5b88:	91282108 	add	x8, x8, #0xa08
    5b8c:	52800029 	mov	w9, #0x1                   	// #1
    5b90:	a90027e8 	stp	x8, x9, [sp]
    5b94:	52800108 	mov	w8, #0x8                   	// #8
    5b98:	b00002e1 	adrp	x1, 62000 <GCC_except_table0+0x108dc>
    5b9c:	91286021 	add	x1, x1, #0xa18
    5ba0:	910003e0 	mov	x0, sp
    5ba4:	a901ffff 	stp	xzr, xzr, [sp, #24]
    5ba8:	f9000be8 	str	x8, [sp, #16]
    5bac:	94000f80 	bl	99ac <_ZN4core9panicking9panic_fmt17ha1b8843c59fc39d4E>

0000000000005bb0 <_ZN3std3sys4sync6rwlock5futex6RwLock22wake_writer_or_readers17he09c5d7c09a1fbbbE>:
    5bb0:	a9be7bfd 	stp	x29, x30, [sp, #-32]!
    5bb4:	a9014ff4 	stp	x20, x19, [sp, #16]
    5bb8:	910003fd 	mov	x29, sp
    5bbc:	7200743f 	tst	w1, #0x3fffffff
    5bc0:	540007a1 	b.ne	5cb4 <_ZN3std3sys4sync6rwlock5futex6RwLock22wake_writer_or_readers17he09c5d7c09a1fbbbE+0x104>  // b.any
    5bc4:	52b00014 	mov	w20, #0x80000000            	// #-2147483648
    5bc8:	aa0003f3 	mov	x19, x0
    5bcc:	6b14003f 	cmp	w1, w20
    5bd0:	54000241 	b.ne	5c18 <_ZN3std3sys4sync6rwlock5futex6RwLock22wake_writer_or_readers17he09c5d7c09a1fbbbE+0x68>  // b.any
    5bd4:	52b00000 	mov	w0, #0x80000000            	// #-2147483648
    5bd8:	2a1f03e1 	mov	w1, wzr
    5bdc:	aa1303e2 	mov	x2, x19
    5be0:	9400ed14 	bl	41030 <__aarch64_cas4_relax>
    5be4:	2a0003e1 	mov	w1, w0
    5be8:	6b14001f 	cmp	w0, w20
    5bec:	54000161 	b.ne	5c18 <_ZN3std3sys4sync6rwlock5futex6RwLock22wake_writer_or_readers17he09c5d7c09a1fbbbE+0x68>  // b.any
    5bf0:	91001261 	add	x1, x19, #0x4
    5bf4:	52800020 	mov	w0, #0x1                   	// #1
    5bf8:	9400ed6e 	bl	411b0 <__aarch64_ldadd4_rel>
    5bfc:	91001261 	add	x1, x19, #0x4
    5c00:	52800c40 	mov	w0, #0x62                  	// #98
    5c04:	52801022 	mov	w2, #0x81                  	// #129
    5c08:	52800023 	mov	w3, #0x1                   	// #1
    5c0c:	a9414ff4 	ldp	x20, x19, [sp, #16]
    5c10:	a8c27bfd 	ldp	x29, x30, [sp], #32
    5c14:	17fffd4f 	b	5150 <syscall@plt>
    5c18:	52b80014 	mov	w20, #0xc0000000            	// #-1073741824
    5c1c:	6b14003f 	cmp	w1, w20
    5c20:	54000240 	b.eq	5c68 <_ZN3std3sys4sync6rwlock5futex6RwLock22wake_writer_or_readers17he09c5d7c09a1fbbbE+0xb8>  // b.none
    5c24:	52a80008 	mov	w8, #0x40000000            	// #1073741824
    5c28:	6b08003f 	cmp	w1, w8
    5c2c:	540003e1 	b.ne	5ca8 <_ZN3std3sys4sync6rwlock5futex6RwLock22wake_writer_or_readers17he09c5d7c09a1fbbbE+0xf8>  // b.any
    5c30:	52a80000 	mov	w0, #0x40000000            	// #1073741824
    5c34:	2a1f03e1 	mov	w1, wzr
    5c38:	aa1303e2 	mov	x2, x19
    5c3c:	52a80014 	mov	w20, #0x40000000            	// #1073741824
    5c40:	9400ecfc 	bl	41030 <__aarch64_cas4_relax>
    5c44:	6b14001f 	cmp	w0, w20
    5c48:	54000301 	b.ne	5ca8 <_ZN3std3sys4sync6rwlock5futex6RwLock22wake_writer_or_readers17he09c5d7c09a1fbbbE+0xf8>  // b.any
    5c4c:	52800c40 	mov	w0, #0x62                  	// #98
    5c50:	aa1303e1 	mov	x1, x19
    5c54:	52801022 	mov	w2, #0x81                  	// #129
    5c58:	12b00003 	mov	w3, #0x7fffffff            	// #2147483647
    5c5c:	a9414ff4 	ldp	x20, x19, [sp, #16]
    5c60:	a8c27bfd 	ldp	x29, x30, [sp], #32
    5c64:	17fffd3b 	b	5150 <syscall@plt>
    5c68:	52b80000 	mov	w0, #0xc0000000            	// #-1073741824
    5c6c:	52a80001 	mov	w1, #0x40000000            	// #1073741824
    5c70:	aa1303e2 	mov	x2, x19
    5c74:	9400ecef 	bl	41030 <__aarch64_cas4_relax>
    5c78:	6b14001f 	cmp	w0, w20
    5c7c:	54000161 	b.ne	5ca8 <_ZN3std3sys4sync6rwlock5futex6RwLock22wake_writer_or_readers17he09c5d7c09a1fbbbE+0xf8>  // b.any
    5c80:	91001261 	add	x1, x19, #0x4
    5c84:	52800020 	mov	w0, #0x1                   	// #1
    5c88:	9400ed4a 	bl	411b0 <__aarch64_ldadd4_rel>
    5c8c:	91001261 	add	x1, x19, #0x4
    5c90:	52800c40 	mov	w0, #0x62                  	// #98
    5c94:	52801022 	mov	w2, #0x81                  	// #129
    5c98:	52800023 	mov	w3, #0x1                   	// #1
    5c9c:	97fffd2d 	bl	5150 <syscall@plt>
    5ca0:	f100001f 	cmp	x0, #0x0
    5ca4:	54fffc6d 	b.le	5c30 <_ZN3std3sys4sync6rwlock5futex6RwLock22wake_writer_or_readers17he09c5d7c09a1fbbbE+0x80>
    5ca8:	a9414ff4 	ldp	x20, x19, [sp, #16]
    5cac:	a8c27bfd 	ldp	x29, x30, [sp], #32
    5cb0:	d65f03c0 	ret
    5cb4:	d00001e0 	adrp	x0, 43000 <_fini+0x17d4>
    5cb8:	9125c800 	add	x0, x0, #0x972
    5cbc:	b00002e2 	adrp	x2, 62000 <GCC_except_table0+0x108dc>
    5cc0:	9128c042 	add	x2, x2, #0xa30
    5cc4:	52800481 	mov	w1, #0x24                  	// #36
    5cc8:	94000f2c 	bl	9978 <_ZN4core9panicking5panic17h8f97f781c7719c2fE>

0000000000005ccc <_ZN3std4sync9once_lock17OnceLock$LT$T$GT$10initialize17h572ef898767e16d6E>:
    5ccc:	90000308 	adrp	x8, 65000 <__dso_handle>
    5cd0:	91262108 	add	x8, x8, #0x988
    5cd4:	88dffd08 	ldar	w8, [x8]
    5cd8:	35000048 	cbnz	w8, 5ce0 <_ZN3std4sync9once_lock17OnceLock$LT$T$GT$10initialize17h572ef898767e16d6E+0x14>
    5cdc:	d65f03c0 	ret
    5ce0:	d100c3ff 	sub	sp, sp, #0x30
    5ce4:	a9027bfd 	stp	x29, x30, [sp, #32]
    5ce8:	910083fd 	add	x29, sp, #0x20
    5cec:	90000308 	adrp	x8, 65000 <__dso_handle>
    5cf0:	91254108 	add	x8, x8, #0x950
    5cf4:	d10007a9 	sub	x9, x29, #0x1
    5cf8:	910003ea 	mov	x10, sp
    5cfc:	b00002e3 	adrp	x3, 62000 <GCC_except_table0+0x108dc>
    5d00:	91300063 	add	x3, x3, #0xc00
    5d04:	9400a408 	bl	2ed24 <OUTLINED_FUNCTION_65>
    5d08:	9100e100 	add	x0, x8, #0x38
    5d0c:	9400a384 	bl	2eb1c <OUTLINED_FUNCTION_28>
    5d10:	a9427bfd 	ldp	x29, x30, [sp, #32]
    5d14:	9100c3ff 	add	sp, sp, #0x30
    5d18:	d65f03c0 	ret

0000000000005d1c <_ZN3std4sync9once_lock17OnceLock$LT$T$GT$10initialize17he35286b3b8570d8fE>:
    5d1c:	90000308 	adrp	x8, 65000 <__dso_handle>
    5d20:	91262108 	add	x8, x8, #0x988
    5d24:	88dffd08 	ldar	w8, [x8]
    5d28:	35000048 	cbnz	w8, 5d30 <_ZN3std4sync9once_lock17OnceLock$LT$T$GT$10initialize17he35286b3b8570d8fE+0x14>
    5d2c:	d65f03c0 	ret
    5d30:	d10103ff 	sub	sp, sp, #0x40
    5d34:	a9037bfd 	stp	x29, x30, [sp, #48]
    5d38:	9100c3fd 	add	x29, sp, #0x30
    5d3c:	90000308 	adrp	x8, 65000 <__dso_handle>
    5d40:	91254108 	add	x8, x8, #0x950
    5d44:	d10007a9 	sub	x9, x29, #0x1
    5d48:	a900a3e0 	stp	x0, x8, [sp, #8]
    5d4c:	b00002e3 	adrp	x3, 62000 <GCC_except_table0+0x108dc>
    5d50:	912f6063 	add	x3, x3, #0xbd8
    5d54:	f9000fe9 	str	x9, [sp, #24]
    5d58:	910023e9 	add	x9, sp, #0x8
    5d5c:	9400a3f2 	bl	2ed24 <OUTLINED_FUNCTION_65>
    5d60:	9100e100 	add	x0, x8, #0x38
    5d64:	d10043a2 	sub	x2, x29, #0x10
    5d68:	52800021 	mov	w1, #0x1                   	// #1
    5d6c:	f81f03a9 	stur	x9, [x29, #-16]
    5d70:	97fffe44 	bl	5680 <_ZN3std3sys4sync4once5futex4Once4call17hd98489a98f92768bE>
    5d74:	a9437bfd 	ldp	x29, x30, [sp, #48]
    5d78:	910103ff 	add	sp, sp, #0x40
    5d7c:	d65f03c0 	ret

0000000000005d80 <_ZN3std5alloc8rust_oom17ha63ff758ec950cdcE>:
    5d80:	a9bf7bfd 	stp	x29, x30, [sp, #-16]!
    5d84:	910003fd 	mov	x29, sp
    5d88:	f00002e8 	adrp	x8, 64000 <__do_global_dtors_aux_fini_array_entry+0x1e88>
    5d8c:	f00002e9 	adrp	x9, 64000 <__do_global_dtors_aux_fini_array_entry+0x1e88>
    5d90:	f947a108 	ldr	x8, [x8, #3904]
    5d94:	c8dffd08 	ldar	x8, [x8]
    5d98:	f9477d29 	ldr	x9, [x9, #3832]
    5d9c:	f100011f 	cmp	x8, #0x0
    5da0:	9a880128 	csel	x8, x9, x8, eq  // eq = none
    5da4:	d63f0100 	blr	x8
    5da8:	9400000f 	bl	5de4 <_ZN3std7process5abort17ha60f5331ba5ea9ecE>

0000000000005dac <_ZN3std6thread8ThreadId3new9exhausted17h5858f38584c9fcdfE>:
    5dac:	d10103ff 	sub	sp, sp, #0x40
    5db0:	a9037bfd 	stp	x29, x30, [sp, #48]
    5db4:	9100c3fd 	add	x29, sp, #0x30
    5db8:	b00002e8 	adrp	x8, 62000 <GCC_except_table0+0x108dc>
    5dbc:	91336108 	add	x8, x8, #0xcd8
    5dc0:	52800029 	mov	w9, #0x1                   	// #1
    5dc4:	a90027e8 	stp	x8, x9, [sp]
    5dc8:	52800108 	mov	w8, #0x8                   	// #8
    5dcc:	b00002e1 	adrp	x1, 62000 <GCC_except_table0+0x108dc>
    5dd0:	9133a021 	add	x1, x1, #0xce8
    5dd4:	910003e0 	mov	x0, sp
    5dd8:	a901ffff 	stp	xzr, xzr, [sp, #24]
    5ddc:	f9000be8 	str	x8, [sp, #16]
    5de0:	94000ef3 	bl	99ac <_ZN4core9panicking9panic_fmt17ha1b8843c59fc39d4E>

0000000000005de4 <_ZN3std7process5abort17ha60f5331ba5ea9ecE>:
    5de4:	a9bf7bfd 	stp	x29, x30, [sp, #-16]!
    5de8:	910003fd 	mov	x29, sp
    5dec:	97fffd66 	bl	5384 <_ZN3std3sys3pal4unix14abort_internal17he2ed3140c753f125E>

0000000000005df0 <_ZN3std9panicking11panic_count17is_zero_slow_path17h7c68d338a911255aE>:
    5df0:	a9bf7bfd 	stp	x29, x30, [sp, #-16]!
    5df4:	910003fd 	mov	x29, sp
    5df8:	d2a00000 	movz	x0, #0x0, lsl #16
    5dfc:	f2800a00 	movk	x0, #0x50
    5e00:	d503201f 	nop
    5e04:	d503201f 	nop
    5e08:	d53bd048 	mrs	x8, tpidr_el0
    5e0c:	f8606908 	ldr	x8, [x8, x0]
    5e10:	f100011f 	cmp	x8, #0x0
    5e14:	1a9f17e0 	cset	w0, eq  // eq = none
    5e18:	a8c17bfd 	ldp	x29, x30, [sp], #16
    5e1c:	d65f03c0 	ret

0000000000005e20 <_ZN4core4cell4once17OnceCell$LT$T$GT$8try_init17h465fe4abef2d6422E>:
    5e20:	d10583ff 	sub	sp, sp, #0x160
    5e24:	a9107bfd 	stp	x29, x30, [sp, #256]
    5e28:	a9116ffc 	stp	x28, x27, [sp, #272]
    5e2c:	a91267fa 	stp	x26, x25, [sp, #288]
    5e30:	a9135ff8 	stp	x24, x23, [sp, #304]
    5e34:	a91457f6 	stp	x22, x21, [sp, #320]
    5e38:	a9154ff4 	stp	x20, x19, [sp, #336]
    5e3c:	910403fd 	add	x29, sp, #0x100
    5e40:	f9400829 	ldr	x9, [x1, #16]
    5e44:	f9400028 	ldr	x8, [x1]
    5e48:	5280008a 	mov	w10, #0x4                   	// #4
    5e4c:	5280018c 	mov	w12, #0xc                   	// #12
    5e50:	aa0003f3 	mov	x19, x0
    5e54:	f9400534 	ldr	x20, [x9, #8]
    5e58:	f940010b 	ldr	x11, [x8]
    5e5c:	39412695 	ldrb	w21, [x20, #73]
    5e60:	a9433688 	ldp	x8, x13, [x20, #48]
    5e64:	f9402172 	ldr	x18, [x11, #64]
    5e68:	710022bf 	cmp	w21, #0x8
    5e6c:	9a8a018b 	csel	x11, x12, x10, eq  // eq = none
    5e70:	cb0801aa 	sub	x10, x13, x8
    5e74:	f9000ff2 	str	x18, [sp, #24]
    5e78:	8b0b014a 	add	x10, x10, x11
    5e7c:	eb0a024e 	subs	x14, x18, x10
    5e80:	fa4e2100 	ccmp	x8, x14, #0x0, cs  // cs = hs, nlast
    5e84:	540000e8 	b.hi	5ea0 <_ZN4core4cell4once17OnceCell$LT$T$GT$8try_init17h465fe4abef2d6422E+0x80>  // b.pmore
    5e88:	aa1f03fa 	mov	x26, xzr
    5e8c:	2a1f03f8 	mov	w24, wzr
    5e90:	aa1f03f5 	mov	x21, xzr
    5e94:	52800776 	mov	w22, #0x3b                  	// #59
    5e98:	aa1403f9 	mov	x25, x20
    5e9c:	14000026 	b	5f34 <_ZN4core4cell4once17OnceCell$LT$T$GT$8try_init17h465fe4abef2d6422E+0x114>
    5ea0:	f940168c 	ldr	x12, [x20, #40]
    5ea4:	f940042f 	ldr	x15, [x1, #8]
    5ea8:	cb0e0111 	sub	x17, x8, x14
    5eac:	f9400c30 	ldr	x16, [x1, #24]
    5eb0:	f9400136 	ldr	x22, [x9]
    5eb4:	aa1f03f9 	mov	x25, xzr
    5eb8:	f940ba89 	ldr	x9, [x20, #368]
    5ebc:	8b0e018e 	add	x14, x12, x14
    5ec0:	394001e1 	ldrb	w1, [x15]
    5ec4:	f940021b 	ldr	x27, [x16]
    5ec8:	a90247ee 	stp	x14, x17, [sp, #32]
    5ecc:	2a1f03ea 	mov	w10, wzr
    5ed0:	9100412e 	add	x14, x9, #0x10
    5ed4:	f90023ff 	str	xzr, [sp, #64]
    5ed8:	a9033bf4 	stp	x20, x14, [sp, #48]
    5edc:	cb0b024e 	sub	x14, x18, x11
    5ee0:	8b08018b 	add	x11, x12, x8
    5ee4:	cb0d01cd 	sub	x13, x14, x13
    5ee8:	386d696e 	ldrb	w14, [x11, x13]
    5eec:	7100fd5f 	cmp	w10, #0x3f
    5ef0:	54000061 	b.ne	5efc <_ZN4core4cell4once17OnceCell$LT$T$GT$8try_init17h465fe4abef2d6422E+0xdc>  // b.any
    5ef4:	710005df 	cmp	w14, #0x1
    5ef8:	54000148 	b.hi	5f20 <_ZN4core4cell4once17OnceCell$LT$T$GT$8try_init17h465fe4abef2d6422E+0x100>  // b.pmore
    5efc:	924019cf 	and	x15, x14, #0x7f
    5f00:	9aca21ef 	lsl	x15, x15, x10
    5f04:	aa1901f9 	orr	x25, x15, x25
    5f08:	3638042e 	tbz	w14, #7, 5f8c <_ZN4core4cell4once17OnceCell$LT$T$GT$8try_init17h465fe4abef2d6422E+0x16c>
    5f0c:	b10005ad 	adds	x13, x13, #0x1
    5f10:	11001d4a 	add	w10, w10, #0x7
    5f14:	54fffea3 	b.cc	5ee8 <_ZN4core4cell4once17OnceCell$LT$T$GT$8try_init17h465fe4abef2d6422E+0xc8>  // b.lo, b.ul, b.last
    5f18:	52800276 	mov	w22, #0x13                  	// #19
    5f1c:	14000002 	b	5f24 <_ZN4core4cell4once17OnceCell$LT$T$GT$8try_init17h465fe4abef2d6422E+0x104>
    5f20:	528000d6 	mov	w22, #0x6                   	// #6
    5f24:	aa1f03fa 	mov	x26, xzr
    5f28:	2a1f03f8 	mov	w24, wzr
    5f2c:	aa1f03f5 	mov	x21, xzr
    5f30:	aa0b03f9 	mov	x25, x11
    5f34:	d370bf48 	lsl	x8, x26, #16
    5f38:	b9400269 	ldr	w9, [x19]
    5f3c:	b3781f08 	bfi	x8, x24, #8, #8
    5f40:	7100053f 	cmp	w9, #0x1
    5f44:	b3401ec8 	bfxil	x8, x22, #0, #8
    5f48:	54002160 	b.eq	6374 <_ZN4core4cell4once17OnceCell$LT$T$GT$8try_init17h465fe4abef2d6422E+0x554>  // b.none
    5f4c:	a9016668 	stp	x8, x25, [x19, #16]
    5f50:	f9400fe8 	ldr	x8, [sp, #24]
    5f54:	52800029 	mov	w9, #0x1                   	// #1
    5f58:	aa1303e0 	mov	x0, x19
    5f5c:	f9000269 	str	x9, [x19]
    5f60:	f8008c15 	str	x21, [x0, #8]!
    5f64:	a902227b 	stp	x27, x8, [x19, #32]
    5f68:	a9035e7c 	stp	x28, x23, [x19, #48]
    5f6c:	a9554ff4 	ldp	x20, x19, [sp, #336]
    5f70:	a95457f6 	ldp	x22, x21, [sp, #320]
    5f74:	a9535ff8 	ldp	x24, x23, [sp, #304]
    5f78:	a95267fa 	ldp	x26, x25, [sp, #288]
    5f7c:	a9516ffc 	ldp	x28, x27, [sp, #272]
    5f80:	a9507bfd 	ldp	x29, x30, [sp, #256]
    5f84:	910583ff 	add	sp, sp, #0x160
    5f88:	d65f03c0 	ret
    5f8c:	8b080188 	add	x8, x12, x8
    5f90:	aa2d03ea 	mvn	x10, x13
    5f94:	8b0d0108 	add	x8, x8, x13
    5f98:	91000508 	add	x8, x8, #0x1
    5f9c:	a9022be8 	stp	x8, x10, [sp, #32]
    5fa0:	b4002119 	cbz	x25, 63c0 <_ZN4core4cell4once17OnceCell$LT$T$GT$8try_init17h465fe4abef2d6422E+0x5a0>
    5fa4:	f940112a 	ldr	x10, [x9, #32]
    5fa8:	d1000728 	sub	x8, x25, #0x1
    5fac:	eb0a011f 	cmp	x8, x10
    5fb0:	54000be2 	b.cs	612c <_ZN4core4cell4once17OnceCell$LT$T$GT$8try_init17h465fe4abef2d6422E+0x30c>  // b.hs, b.nlast
    5fb4:	52800e0a 	mov	w10, #0x70                  	// #112
    5fb8:	f9400d29 	ldr	x9, [x9, #24]
    5fbc:	9b0a2500 	madd	x0, x8, x10, x9
    5fc0:	3941a808 	ldrb	w8, [x0, #106]
    5fc4:	b90017e1 	str	w1, [sp, #20]
    5fc8:	7100051f 	cmp	w8, #0x1
    5fcc:	54000061 	b.ne	5fd8 <_ZN4core4cell4once17OnceCell$LT$T$GT$8try_init17h465fe4abef2d6422E+0x1b8>  // b.any
    5fd0:	52800028 	mov	w8, #0x1                   	// #1
    5fd4:	f90023e8 	str	x8, [sp, #64]
    5fd8:	9400aa43 	bl	308e4 <_ZN75_$LT$gimli..read..abbrev..Attributes$u20$as$u20$core..ops..deref..Deref$GT$5deref17h293ca020b40554eaE>
    5fdc:	b4000de1 	cbz	x1, 6198 <_ZN4core4cell4once17OnceCell$LT$T$GT$8try_init17h465fe4abef2d6422E+0x378>
    5fe0:	d37cec38 	lsl	x24, x1, #4
    5fe4:	f940d29a 	ldr	x26, [x20, #416]
    5fe8:	aa0003f9 	mov	x25, x0
    5fec:	aa1f03fc 	mov	x28, xzr
    5ff0:	14000012 	b	6038 <_ZN4core4cell4once17OnceCell$LT$T$GT$8try_init17h465fe4abef2d6422E+0x218>
    5ff4:	910183e0 	add	x0, sp, #0x60
    5ff8:	9101e3e1 	add	x1, sp, #0x78
    5ffc:	94007cfa 	bl	253e4 <_ZN5gimli4read4unit18Attribute$LT$R$GT$5value17h7f5d1f83361d8fa8E>
    6000:	910123e0 	add	x0, sp, #0x48
    6004:	910183e4 	add	x4, sp, #0x60
    6008:	aa1603e1 	mov	x1, x22
    600c:	2a1503e2 	mov	w2, w21
    6010:	aa1a03e3 	mov	x3, x26
    6014:	940088d4 	bl	28364 <_ZN5gimli4read5dwarf14Dwarf$LT$R$GT$11attr_string17h87a8b29558e7a251E>
    6018:	b9404be8 	ldr	w8, [sp, #72]
    601c:	a9452be9 	ldp	x9, x10, [sp, #80]
    6020:	7100011f 	cmp	w8, #0x0
    6024:	9a8a12f7 	csel	x23, x23, x10, ne  // ne = any
    6028:	9a89139c 	csel	x28, x28, x9, ne  // ne = any
    602c:	f1004318 	subs	x24, x24, #0x10
    6030:	91004339 	add	x25, x25, #0x10
    6034:	54000b40 	b.eq	619c <_ZN4core4cell4once17OnceCell$LT$T$GT$8try_init17h465fe4abef2d6422E+0x37c>  // b.none
    6038:	f9401be8 	ldr	x8, [sp, #48]
    603c:	3dc00320 	ldr	q0, [x25]
    6040:	9101e3e0 	add	x0, sp, #0x78
    6044:	910083e1 	add	x1, sp, #0x20
    6048:	910183e3 	add	x3, sp, #0x60
    604c:	b9404902 	ldr	w2, [x8, #72]
    6050:	3d801be0 	str	q0, [sp, #96]
    6054:	940077bc 	bl	23f44 <_ZN5gimli4read4unit15parse_attribute17h1ad3e2b925521b15E>
    6058:	f9403fe8 	ldr	x8, [sp, #120]
    605c:	f100b91f 	cmp	x8, #0x2e
    6060:	540011c0 	b.eq	6298 <_ZN4core4cell4once17OnceCell$LT$T$GT$8try_init17h465fe4abef2d6422E+0x478>  // b.none
    6064:	794123e8 	ldrh	w8, [sp, #144]
    6068:	7101191f 	cmp	w8, #0x46
    606c:	5400012d 	b.le	6090 <_ZN4core4cell4once17OnceCell$LT$T$GT$8try_init17h465fe4abef2d6422E+0x270>
    6070:	71011d1f 	cmp	w8, #0x47
    6074:	54000160 	b.eq	60a0 <_ZN4core4cell4once17OnceCell$LT$T$GT$8try_init17h465fe4abef2d6422E+0x280>  // b.none
    6078:	528400e9 	mov	w9, #0x2007                	// #8199
    607c:	6b09011f 	cmp	w8, w9
    6080:	54fffba0 	b.eq	5ff4 <_ZN4core4cell4once17OnceCell$LT$T$GT$8try_init17h465fe4abef2d6422E+0x1d4>  // b.none
    6084:	7101b91f 	cmp	w8, #0x6e
    6088:	54fffb60 	b.eq	5ff4 <_ZN4core4cell4once17OnceCell$LT$T$GT$8try_init17h465fe4abef2d6422E+0x1d4>  // b.none
    608c:	17ffffe8 	b	602c <_ZN4core4cell4once17OnceCell$LT$T$GT$8try_init17h465fe4abef2d6422E+0x20c>
    6090:	71000d1f 	cmp	w8, #0x3
    6094:	54000280 	b.eq	60e4 <_ZN4core4cell4once17OnceCell$LT$T$GT$8try_init17h465fe4abef2d6422E+0x2c4>  // b.none
    6098:	7100c51f 	cmp	w8, #0x31
    609c:	54fffc81 	b.ne	602c <_ZN4core4cell4once17OnceCell$LT$T$GT$8try_init17h465fe4abef2d6422E+0x20c>  // b.any
    60a0:	b5fffc7c 	cbnz	x28, 602c <_ZN4core4cell4once17OnceCell$LT$T$GT$8try_init17h465fe4abef2d6422E+0x20c>
    60a4:	910183e0 	add	x0, sp, #0x60
    60a8:	9101e3e1 	add	x1, sp, #0x78
    60ac:	94007cce 	bl	253e4 <_ZN5gimli4read4unit18Attribute$LT$R$GT$5value17h7f5d1f83361d8fa8E>
    60b0:	a9460be1 	ldp	x1, x2, [sp, #96]
    60b4:	910123e0 	add	x0, sp, #0x48
    60b8:	b94017e3 	ldr	w3, [sp, #20]
    60bc:	aa1603e4 	mov	x4, x22
    60c0:	aa1403e5 	mov	x5, x20
    60c4:	aa1b03e6 	mov	x6, x27
    60c8:	52800207 	mov	w7, #0x10                  	// #16
    60cc:	9400a0d4 	bl	2e41c <_ZN9addr2line8function9name_attr17h2e3aa93912730aeeE>
    60d0:	b9404be8 	ldr	w8, [sp, #72]
    60d4:	a9455ffc 	ldp	x28, x23, [sp, #80]
    60d8:	7100051f 	cmp	w8, #0x1
    60dc:	54fffa81 	b.ne	602c <_ZN4core4cell4once17OnceCell$LT$T$GT$8try_init17h465fe4abef2d6422E+0x20c>  // b.any
    60e0:	1400006f 	b	629c <_ZN4core4cell4once17OnceCell$LT$T$GT$8try_init17h465fe4abef2d6422E+0x47c>
    60e4:	b5fffa5c 	cbnz	x28, 602c <_ZN4core4cell4once17OnceCell$LT$T$GT$8try_init17h465fe4abef2d6422E+0x20c>
    60e8:	910183e0 	add	x0, sp, #0x60
    60ec:	9101e3e1 	add	x1, sp, #0x78
    60f0:	94007cbd 	bl	253e4 <_ZN5gimli4read4unit18Attribute$LT$R$GT$5value17h7f5d1f83361d8fa8E>
    60f4:	910123e0 	add	x0, sp, #0x48
    60f8:	910183e4 	add	x4, sp, #0x60
    60fc:	aa1603e1 	mov	x1, x22
    6100:	2a1503e2 	mov	w2, w21
    6104:	aa1a03e3 	mov	x3, x26
    6108:	94008897 	bl	28364 <_ZN5gimli4read5dwarf14Dwarf$LT$R$GT$11attr_string17h87a8b29558e7a251E>
    610c:	b9404be8 	ldr	w8, [sp, #72]
    6110:	a94527ea 	ldp	x10, x9, [sp, #80]
    6114:	f94007f7 	ldr	x23, [sp, #8]
    6118:	7100011f 	cmp	w8, #0x0
    611c:	9a8912f7 	csel	x23, x23, x9, ne  // ne = any
    6120:	9a8a13fc 	csel	x28, xzr, x10, ne  // ne = any
    6124:	f90007f7 	str	x23, [sp, #8]
    6128:	17ffffc1 	b	602c <_ZN4core4cell4once17OnceCell$LT$T$GT$8try_init17h465fe4abef2d6422E+0x20c>
    612c:	f9401528 	ldr	x8, [x9, #40]
    6130:	b4000c28 	cbz	x8, 62b4 <_ZN4core4cell4once17OnceCell$LT$T$GT$8try_init17h465fe4abef2d6422E+0x494>
    6134:	f9401929 	ldr	x9, [x9, #48]
    6138:	794a650b 	ldrh	w11, [x8, #1330]
    613c:	9113610d 	add	x13, x8, #0x4d8
    6140:	d101c100 	sub	x0, x8, #0x70
    6144:	9280000a 	mov	x10, #0xffffffffffffffff    	// #-1
    6148:	d37df16c 	lsl	x12, x11, #3
    614c:	b40001ac 	cbz	x12, 6180 <_ZN4core4cell4once17OnceCell$LT$T$GT$8try_init17h465fe4abef2d6422E+0x360>
    6150:	f84085ae 	ldr	x14, [x13], #8
    6154:	d100218c 	sub	x12, x12, #0x8
    6158:	9101c000 	add	x0, x0, #0x70
    615c:	9100054a 	add	x10, x10, #0x1
    6160:	eb0e033f 	cmp	x25, x14
    6164:	1a9f97ee 	cset	w14, hi  // hi = pmore
    6168:	5a9f21ce 	csinv	w14, w14, wzr, cs  // cs = hs, nlast
    616c:	12001dce 	and	w14, w14, #0xff
    6170:	710005df 	cmp	w14, #0x1
    6174:	54fffec0 	b.eq	614c <_ZN4core4cell4once17OnceCell$LT$T$GT$8try_init17h465fe4abef2d6422E+0x32c>  // b.none
    6178:	34fff24e 	cbz	w14, 5fc0 <_ZN4core4cell4once17OnceCell$LT$T$GT$8try_init17h465fe4abef2d6422E+0x1a0>
    617c:	14000002 	b	6184 <_ZN4core4cell4once17OnceCell$LT$T$GT$8try_init17h465fe4abef2d6422E+0x364>
    6180:	aa0b03ea 	mov	x10, x11
    6184:	b4000989 	cbz	x9, 62b4 <_ZN4core4cell4once17OnceCell$LT$T$GT$8try_init17h465fe4abef2d6422E+0x494>
    6188:	8b0a0d08 	add	x8, x8, x10, lsl #3
    618c:	d1000529 	sub	x9, x9, #0x1
    6190:	f9429d08 	ldr	x8, [x8, #1336]
    6194:	17ffffe9 	b	6138 <_ZN4core4cell4once17OnceCell$LT$T$GT$8try_init17h465fe4abef2d6422E+0x318>
    6198:	aa1f03fc 	mov	x28, xzr
    619c:	ad4107e0 	ldp	q0, q1, [sp, #32]
    61a0:	9101e3e8 	add	x8, sp, #0x78
    61a4:	b94017e9 	ldr	w9, [sp, #20]
    61a8:	a908ffff 	stp	xzr, xzr, [sp, #136]
    61ac:	a90deff4 	stp	x20, x27, [sp, #216]
    61b0:	ad018500 	stp	q0, q1, [x8, #48]
    61b4:	52800108 	mov	w8, #0x8                   	// #8
    61b8:	a907a3ff 	stp	xzr, x8, [sp, #120]
    61bc:	a909ffe8 	stp	x8, xzr, [sp, #152]
    61c0:	f94023e8 	ldr	x8, [sp, #64]
    61c4:	3903a3e9 	strb	w9, [sp, #232]
    61c8:	a90cdbe8 	stp	x8, x22, [sp, #200]
    61cc:	910183e0 	add	x0, sp, #0x60
    61d0:	9101e3e1 	add	x1, sp, #0x78
    61d4:	aa1f03e2 	mov	x2, xzr
    61d8:	aa1f03e3 	mov	x3, xzr
    61dc:	94009cf7 	bl	2d5b8 <_ZN9addr2line8function17Function$LT$R$GT$14parse_children17hdc051c9d3dfd9a1dE>
    61e0:	394183f6 	ldrb	w22, [sp, #96]
    61e4:	71014adf 	cmp	w22, #0x52
    61e8:	54000301 	b.ne	6248 <_ZN4core4cell4once17OnceCell$LT$T$GT$8try_init17h465fe4abef2d6422E+0x428>  // b.any
    61ec:	f94053e1 	ldr	x1, [sp, #160]
    61f0:	f100083f 	cmp	x1, #0x2
    61f4:	54000b62 	b.cs	6360 <_ZN4core4cell4once17OnceCell$LT$T$GT$8try_init17h465fe4abef2d6422E+0x540>  // b.hs, b.nlast
    61f8:	a9485bf4 	ldp	x20, x22, [sp, #128]
    61fc:	f9403fe8 	ldr	x8, [sp, #120]
    6200:	eb16011f 	cmp	x8, x22
    6204:	54000629 	b.ls	62c8 <_ZN4core4cell4once17OnceCell$LT$T$GT$8try_init17h465fe4abef2d6422E+0x4a8>  // b.plast
    6208:	8b080508 	add	x8, x8, x8, lsl #1
    620c:	d37ced19 	lsl	x25, x8, #4
    6210:	b4000836 	cbz	x22, 6314 <_ZN4core4cell4once17OnceCell$LT$T$GT$8try_init17h465fe4abef2d6422E+0x4f4>
    6214:	8b1606c8 	add	x8, x22, x22, lsl #1
    6218:	aa1403e0 	mov	x0, x20
    621c:	aa1903e1 	mov	x1, x25
    6220:	52800102 	mov	w2, #0x8                   	// #8
    6224:	d37ced18 	lsl	x24, x8, #4
    6228:	aa1803e3 	mov	x3, x24
    622c:	94000f12 	bl	9e74 <_RNvCsiGVaDesi5rv_7___rustc14___rust_realloc>
    6230:	aa0003f5 	mov	x21, x0
    6234:	b50004c0 	cbnz	x0, 62cc <_ZN4core4cell4once17OnceCell$LT$T$GT$8try_init17h465fe4abef2d6422E+0x4ac>
    6238:	52800100 	mov	w0, #0x8                   	// #8
    623c:	aa1803e1 	mov	x1, x24
    6240:	94000c0e 	bl	9278 <_ZN5alloc7raw_vec12handle_error17hbfb8377505525b80E>
    6244:	14000033 	b	6310 <_ZN4core4cell4once17OnceCell$LT$T$GT$8try_init17h465fe4abef2d6422E+0x4f0>
    6248:	394187f8 	ldrb	w24, [sp, #97]
    624c:	f9403fe8 	ldr	x8, [sp, #120]
    6250:	7940cff4 	ldrh	w20, [sp, #102]
    6254:	b84623f5 	ldur	w21, [sp, #98]
    6258:	f94037f9 	ldr	x25, [sp, #104]
    625c:	b40000c8 	cbz	x8, 6274 <_ZN4core4cell4once17OnceCell$LT$T$GT$8try_init17h465fe4abef2d6422E+0x454>
    6260:	8b080508 	add	x8, x8, x8, lsl #1
    6264:	f94043e0 	ldr	x0, [sp, #128]
    6268:	52800102 	mov	w2, #0x8                   	// #8
    626c:	d37ced01 	lsl	x1, x8, #4
    6270:	94000f00 	bl	9e70 <_RNvCsiGVaDesi5rv_7___rustc14___rust_dealloc>
    6274:	f9404be8 	ldr	x8, [sp, #144]
    6278:	aa1482ba 	orr	x26, x21, x20, lsl #32
    627c:	b40000a8 	cbz	x8, 6290 <_ZN4core4cell4once17OnceCell$LT$T$GT$8try_init17h465fe4abef2d6422E+0x470>
    6280:	f9404fe0 	ldr	x0, [sp, #152]
    6284:	d37be901 	lsl	x1, x8, #5
    6288:	52800102 	mov	w2, #0x8                   	// #8
    628c:	94000ef9 	bl	9e70 <_RNvCsiGVaDesi5rv_7___rustc14___rust_dealloc>
    6290:	aa1f03f5 	mov	x21, xzr
    6294:	17ffff28 	b	5f34 <_ZN4core4cell4once17OnceCell$LT$T$GT$8try_init17h465fe4abef2d6422E+0x114>
    6298:	a9485ffc 	ldp	x28, x23, [sp, #128]
    629c:	d348ff98 	lsr	x24, x28, #8
    62a0:	aa1f03f5 	mov	x21, xzr
    62a4:	d350ff9a 	lsr	x26, x28, #16
    62a8:	2a1c03f6 	mov	w22, w28
    62ac:	aa1703f9 	mov	x25, x23
    62b0:	17ffff21 	b	5f34 <_ZN4core4cell4once17OnceCell$LT$T$GT$8try_init17h465fe4abef2d6422E+0x114>
    62b4:	aa1f03fa 	mov	x26, xzr
    62b8:	2a1f03f8 	mov	w24, wzr
    62bc:	aa1f03f5 	mov	x21, xzr
    62c0:	52800256 	mov	w22, #0x12                  	// #18
    62c4:	17ffff1c 	b	5f34 <_ZN4core4cell4once17OnceCell$LT$T$GT$8try_init17h465fe4abef2d6422E+0x114>
    62c8:	aa1403f5 	mov	x21, x20
    62cc:	a949eff4 	ldp	x20, x27, [sp, #152]
    62d0:	f9404be8 	ldr	x8, [sp, #144]
    62d4:	eb1b011f 	cmp	x8, x27
    62d8:	54000309 	b.ls	6338 <_ZN4core4cell4once17OnceCell$LT$T$GT$8try_init17h465fe4abef2d6422E+0x518>  // b.plast
    62dc:	d37be91a 	lsl	x26, x8, #5
    62e0:	b400031b 	cbz	x27, 6340 <_ZN4core4cell4once17OnceCell$LT$T$GT$8try_init17h465fe4abef2d6422E+0x520>
    62e4:	d37beb78 	lsl	x24, x27, #5
    62e8:	aa1403e0 	mov	x0, x20
    62ec:	aa1a03e1 	mov	x1, x26
    62f0:	52800102 	mov	w2, #0x8                   	// #8
    62f4:	aa1803e3 	mov	x3, x24
    62f8:	94000edf 	bl	9e74 <_RNvCsiGVaDesi5rv_7___rustc14___rust_realloc>
    62fc:	aa0003f9 	mov	x25, x0
    6300:	b50002a0 	cbnz	x0, 6354 <_ZN4core4cell4once17OnceCell$LT$T$GT$8try_init17h465fe4abef2d6422E+0x534>
    6304:	52800100 	mov	w0, #0x8                   	// #8
    6308:	aa1803e1 	mov	x1, x24
    630c:	94000bdb 	bl	9278 <_ZN5alloc7raw_vec12handle_error17hbfb8377505525b80E>
    6310:	d4200020 	brk	#0x1
    6314:	aa1403e0 	mov	x0, x20
    6318:	aa1903e1 	mov	x1, x25
    631c:	52800102 	mov	w2, #0x8                   	// #8
    6320:	52800115 	mov	w21, #0x8                   	// #8
    6324:	94000ed3 	bl	9e70 <_RNvCsiGVaDesi5rv_7___rustc14___rust_dealloc>
    6328:	a949eff4 	ldp	x20, x27, [sp, #152]
    632c:	f9404be8 	ldr	x8, [sp, #144]
    6330:	eb1b011f 	cmp	x8, x27
    6334:	54fffd48 	b.hi	62dc <_ZN4core4cell4once17OnceCell$LT$T$GT$8try_init17h465fe4abef2d6422E+0x4bc>  // b.pmore
    6338:	aa1403f9 	mov	x25, x20
    633c:	14000006 	b	6354 <_ZN4core4cell4once17OnceCell$LT$T$GT$8try_init17h465fe4abef2d6422E+0x534>
    6340:	aa1403e0 	mov	x0, x20
    6344:	aa1a03e1 	mov	x1, x26
    6348:	52800102 	mov	w2, #0x8                   	// #8
    634c:	52800119 	mov	w25, #0x8                   	// #8
    6350:	94000ec8 	bl	9e70 <_RNvCsiGVaDesi5rv_7___rustc14___rust_dealloc>
    6354:	d348fed8 	lsr	x24, x22, #8
    6358:	d350feda 	lsr	x26, x22, #16
    635c:	17fffef6 	b	5f34 <_ZN4core4cell4once17OnceCell$LT$T$GT$8try_init17h465fe4abef2d6422E+0x114>
    6360:	f9404fe0 	ldr	x0, [sp, #152]
    6364:	f100543f 	cmp	x1, #0x15
    6368:	54000322 	b.cs	63cc <_ZN4core4cell4once17OnceCell$LT$T$GT$8try_init17h465fe4abef2d6422E+0x5ac>  // b.hs, b.nlast
    636c:	9400584b 	bl	1c498 <_ZN4core5slice4sort6shared9smallsort25insertion_sort_shift_left17h9d989137bcbdc607E>
    6370:	17ffffa2 	b	61f8 <_ZN4core4cell4once17OnceCell$LT$T$GT$8try_init17h465fe4abef2d6422E+0x3d8>
    6374:	a908e7e8 	stp	x8, x25, [sp, #136]
    6378:	f9400fe8 	ldr	x8, [sp, #24]
    637c:	91002269 	add	x9, x19, #0x8
    6380:	9101e3e0 	add	x0, sp, #0x78
    6384:	a907d7e9 	stp	x9, x21, [sp, #120]
    6388:	a909a3fb 	stp	x27, x8, [sp, #152]
    638c:	a90adffc 	stp	x28, x23, [sp, #168]
    6390:	940051bb 	bl	1aa7c <_ZN4core3ptr557drop_in_place$LT$core..result..Result$LT$$RF$core..result..Result$LT$addr2line..function..Function$LT$gimli..read..endian_slice..EndianSlice$LT$gimli..endianity..LittleEndian$GT$$GT$$C$gimli..read..Error$GT$$C$$LP$$RF$core..result..Result$LT$addr2line..function..Function$LT$gimli..read..endian_slice..EndianSlice$LT$gimli..endianity..LittleEndian$GT$$GT$$C$gimli..read..Error$GT$$C$core..result..Result$LT$addr2line..function..Function$LT$gimli..read..endian_slice..EndianSlice$LT$gimli..endianity..LittleEndian$GT$$GT$$C$gimli..read..Error$GT$$RP$$GT$$GT$17h87ff69558b2cde6cE>
    6394:	900002e8 	adrp	x8, 62000 <GCC_except_table0+0x108dc>
    6398:	913dc108 	add	x8, x8, #0xf70
    639c:	52800029 	mov	w9, #0x1                   	// #1
    63a0:	a907a7e8 	stp	x8, x9, [sp, #120]
    63a4:	52800108 	mov	w8, #0x8                   	// #8
    63a8:	900002e1 	adrp	x1, 62000 <GCC_except_table0+0x108dc>
    63ac:	913e0021 	add	x1, x1, #0xf80
    63b0:	9101e3e0 	add	x0, sp, #0x78
    63b4:	a9097fff 	stp	xzr, xzr, [sp, #144]
    63b8:	f90047e8 	str	x8, [sp, #136]
    63bc:	94000d7c 	bl	99ac <_ZN4core9panicking9panic_fmt17ha1b8843c59fc39d4E>
    63c0:	b00002e0 	adrp	x0, 63000 <__do_global_dtors_aux_fini_array_entry+0xe88>
    63c4:	9116e000 	add	x0, x0, #0x5b8
    63c8:	94000ca6 	bl	9660 <_ZN4core6option13unwrap_failed17he309480dafb93b83E>
    63cc:	910183e2 	add	x2, sp, #0x60
    63d0:	940059a0 	bl	1ca50 <_ZN4core5slice4sort6stable14driftsort_main17he18f8533dd4ea3a4E>
    63d4:	17ffff89 	b	61f8 <_ZN4core4cell4once17OnceCell$LT$T$GT$8try_init17h465fe4abef2d6422E+0x3d8>
    63d8:	aa0003f3 	mov	x19, x0
    63dc:	aa1403e0 	mov	x0, x20
    63e0:	aa1a03e1 	mov	x1, x26
    63e4:	52800102 	mov	w2, #0x8                   	// #8
    63e8:	94000ea2 	bl	9e70 <_RNvCsiGVaDesi5rv_7___rustc14___rust_dealloc>
    63ec:	b40002f6 	cbz	x22, 6448 <_ZN4core4cell4once17OnceCell$LT$T$GT$8try_init17h465fe4abef2d6422E+0x628>
    63f0:	8b1606c8 	add	x8, x22, x22, lsl #1
    63f4:	aa1503e0 	mov	x0, x21
    63f8:	d37ced01 	lsl	x1, x8, #4
    63fc:	14000011 	b	6440 <_ZN4core4cell4once17OnceCell$LT$T$GT$8try_init17h465fe4abef2d6422E+0x620>
    6400:	aa0003f3 	mov	x19, x0
    6404:	aa1403e0 	mov	x0, x20
    6408:	aa1903e1 	mov	x1, x25
    640c:	14000007 	b	6428 <_ZN4core4cell4once17OnceCell$LT$T$GT$8try_init17h465fe4abef2d6422E+0x608>
    6410:	f9403fe8 	ldr	x8, [sp, #120]
    6414:	aa0003f3 	mov	x19, x0
    6418:	b40000c8 	cbz	x8, 6430 <_ZN4core4cell4once17OnceCell$LT$T$GT$8try_init17h465fe4abef2d6422E+0x610>
    641c:	8b080508 	add	x8, x8, x8, lsl #1
    6420:	f94043e0 	ldr	x0, [sp, #128]
    6424:	d37ced01 	lsl	x1, x8, #4
    6428:	52800102 	mov	w2, #0x8                   	// #8
    642c:	94000e91 	bl	9e70 <_RNvCsiGVaDesi5rv_7___rustc14___rust_dealloc>
    6430:	f9404be8 	ldr	x8, [sp, #144]
    6434:	b40000a8 	cbz	x8, 6448 <_ZN4core4cell4once17OnceCell$LT$T$GT$8try_init17h465fe4abef2d6422E+0x628>
    6438:	f9404fe0 	ldr	x0, [sp, #152]
    643c:	d37be901 	lsl	x1, x8, #5
    6440:	52800102 	mov	w2, #0x8                   	// #8
    6444:	94000e8b 	bl	9e70 <_RNvCsiGVaDesi5rv_7___rustc14___rust_dealloc>
    6448:	aa1303e0 	mov	x0, x19
    644c:	97fffb39 	bl	5130 <_Unwind_Resume@plt>

0000000000006450 <_ZN4core4cell4once17OnceCell$LT$T$GT$8try_init17h5f04ae72a6b83f12E>:
    6450:	a9ba7bfd 	stp	x29, x30, [sp, #-96]!
    6454:	a9016ffc 	stp	x28, x27, [sp, #16]
    6458:	a90267fa 	stp	x26, x25, [sp, #32]
    645c:	a9035ff8 	stp	x24, x23, [sp, #48]
    6460:	a90457f6 	stp	x22, x21, [sp, #64]
    6464:	a9054ff4 	stp	x20, x19, [sp, #80]
    6468:	910003fd 	mov	x29, sp
    646c:	d106c3ff 	sub	sp, sp, #0x1b0
    6470:	52800108 	mov	w8, #0x8                   	// #8
    6474:	f940b84a 	ldr	x10, [x2, #368]
    6478:	aa0003f3 	mov	x19, x0
    647c:	a90da3ff 	stp	xzr, x8, [sp, #216]
    6480:	a93423bf 	stp	xzr, x8, [x29, #-192]
    6484:	a942a049 	ldp	x9, x8, [x2, #40]
    6488:	f90077ff 	str	xzr, [sp, #232]
    648c:	a93527bf 	stp	xzr, x9, [x29, #-176]
    6490:	91004149 	add	x9, x10, #0x10
    6494:	a9360ba8 	stp	x8, x2, [x29, #-160]
    6498:	a9377fa9 	stp	x9, xzr, [x29, #-144]
    649c:	b4004328 	cbz	x8, 6d00 <_ZN4core4cell4once17OnceCell$LT$T$GT$8try_init17h5f04ae72a6b83f12E+0x8b0>
    64a0:	a94e2837 	ldp	x23, x10, [x1, #224]
    64a4:	5280011c 	mov	w28, #0x8                   	// #8
    64a8:	f940dc59 	ldr	x25, [x2, #440]
    64ac:	b9404858 	ldr	w24, [x2, #72]
    64b0:	aa1f03fa 	mov	x26, xzr
    64b4:	39444029 	ldrb	w9, [x1, #272]
    64b8:	a941502b 	ldp	x11, x20, [x1, #16]
    64bc:	f9005bea 	str	x10, [sp, #176]
    64c0:	cb19014a 	sub	x10, x10, x25
    64c4:	7141431f 	cmp	w24, #0x50, lsl #12
    64c8:	f9004fea 	str	x10, [sp, #152]
    64cc:	8b1902ea 	add	x10, x23, x25
    64d0:	f940d45b 	ldr	x27, [x2, #424]
    64d4:	f90053ea 	str	x10, [sp, #160]
    64d8:	d3483f0a 	ubfx	x10, x24, #8, #8
    64dc:	aa1f03f6 	mov	x22, xzr
    64e0:	12181f0c 	and	w12, w24, #0xff00
    64e4:	5280008e 	mov	w14, #0x4                   	// #4
    64e8:	5280018f 	mov	w15, #0xc                   	// #12
    64ec:	f9004bea 	str	x10, [sp, #144]
    64f0:	1a9f27ea 	cset	w10, cc  // cc = lo, ul, last
    64f4:	52800030 	mov	w16, #0x1                   	// #1
    64f8:	6a0a013f 	tst	w9, w10
    64fc:	53107f0a 	lsr	w10, w24, #16
    6500:	b9008fec 	str	w12, [sp, #140]
    6504:	9a9f1329 	csel	x9, x25, xzr, ne  // ne = any
    6508:	f90057e9 	str	x9, [sp, #168]
    650c:	cb1b0289 	sub	x9, x20, x27
    6510:	7100115f 	cmp	w10, #0x4
    6514:	f90067e9 	str	x9, [sp, #200]
    6518:	8b1b0169 	add	x9, x11, x27
    651c:	f90063e9 	str	x9, [sp, #192]
    6520:	92401f09 	and	x9, x24, #0xff
    6524:	f9005fe9 	str	x9, [sp, #184]
    6528:	91034029 	add	x9, x1, #0xd0
    652c:	a907afe9 	stp	x9, x11, [sp, #120]
    6530:	52800209 	mov	w9, #0x10                  	// #16
    6534:	1a9f97eb 	cset	w11, hi  // hi = pmore
    6538:	290c2beb 	stp	w11, w10, [sp, #96]
    653c:	5280030a 	mov	w10, #0x18                  	// #24
    6540:	9a9f812b 	csel	x11, x9, xzr, hi  // hi = pmore
    6544:	9a9c8149 	csel	x9, x10, x28, hi  // hi = pmore
    6548:	a906afe9 	stp	x9, x11, [sp, #104]
    654c:	f940cc49 	ldr	x9, [x2, #408]
    6550:	f9002fe9 	str	x9, [sp, #88]
    6554:	f85683ab 	ldur	x11, [x29, #-152]
    6558:	f85583aa 	ldur	x10, [x29, #-168]
    655c:	aa1f03f5 	mov	x21, xzr
    6560:	2a1f03e9 	mov	w9, wzr
    6564:	3941256c 	ldrb	w12, [x11, #73]
    6568:	7100219f 	cmp	w12, #0x8
    656c:	a943356c 	ldp	x12, x13, [x11, #48]
    6570:	f940156b 	ldr	x11, [x11, #40]
    6574:	9a8e01ee 	csel	x14, x15, x14, eq  // eq = none
    6578:	8b0a01ad 	add	x13, x13, x10
    657c:	8b0b018b 	add	x11, x12, x11
    6580:	9100054c 	add	x12, x10, #0x1
    6584:	8b0e01ad 	add	x13, x13, x14
    6588:	cb0b01ab 	sub	x11, x13, x11
    658c:	f9006beb 	str	x11, [sp, #208]
    6590:	cb08020b 	sub	x11, x16, x8
    6594:	385ff18d 	ldurb	w13, [x12, #-1]
    6598:	7100fd3f 	cmp	w9, #0x3f
    659c:	54000061 	b.ne	65a8 <_ZN4core4cell4once17OnceCell$LT$T$GT$8try_init17h5f04ae72a6b83f12E+0x158>  // b.any
    65a0:	710005bf 	cmp	w13, #0x1
    65a4:	54003388 	b.hi	6c14 <_ZN4core4cell4once17OnceCell$LT$T$GT$8try_init17h5f04ae72a6b83f12E+0x7c4>  // b.pmore
    65a8:	924019ae 	and	x14, x13, #0x7f
    65ac:	9ac921ce 	lsl	x14, x14, x9
    65b0:	aa1501d5 	orr	x21, x14, x21
    65b4:	363800ed 	tbz	w13, #7, 65d0 <_ZN4core4cell4once17OnceCell$LT$T$GT$8try_init17h5f04ae72a6b83f12E+0x180>
    65b8:	9100056b 	add	x11, x11, #0x1
    65bc:	9100058c 	add	x12, x12, #0x1
    65c0:	11001d29 	add	w9, w9, #0x7
    65c4:	f100057f 	cmp	x11, #0x1
    65c8:	54fffe61 	b.ne	6594 <_ZN4core4cell4once17OnceCell$LT$T$GT$8try_init17h5f04ae72a6b83f12E+0x144>  // b.any
    65cc:	14000196 	b	6c24 <_ZN4core4cell4once17OnceCell$LT$T$GT$8try_init17h5f04ae72a6b83f12E+0x7d4>
    65d0:	cb0b03e8 	neg	x8, x11
    65d4:	a935a3ac 	stp	x12, x8, [x29, #-168]
    65d8:	b4000375 	cbz	x21, 6644 <_ZN4core4cell4once17OnceCell$LT$T$GT$8try_init17h5f04ae72a6b83f12E+0x1f4>
    65dc:	f85703a9 	ldur	x9, [x29, #-144]
    65e0:	d10006a8 	sub	x8, x21, #0x1
    65e4:	f940092a 	ldr	x10, [x9, #16]
    65e8:	eb0a011f 	cmp	x8, x10
    65ec:	54000342 	b.cs	6654 <_ZN4core4cell4once17OnceCell$LT$T$GT$8try_init17h5f04ae72a6b83f12E+0x204>  // b.hs, b.nlast
    65f0:	52800e0a 	mov	w10, #0x70                  	// #112
    65f4:	f9400529 	ldr	x9, [x9, #8]
    65f8:	9b0a2500 	madd	x0, x8, x10, x9
    65fc:	3941a808 	ldrb	w8, [x0, #106]
    6600:	7100051f 	cmp	w8, #0x1
    6604:	54000081 	b.ne	6614 <_ZN4core4cell4once17OnceCell$LT$T$GT$8try_init17h5f04ae72a6b83f12E+0x1c4>  // b.any
    6608:	f85783a8 	ldur	x8, [x29, #-136]
    660c:	91000508 	add	x8, x8, #0x1
    6610:	f81783a8 	stur	x8, [x29, #-136]
    6614:	7940d008 	ldrh	w8, [x0, #104]
    6618:	7100b91f 	cmp	w8, #0x2e
    661c:	54000521 	b.ne	66c0 <_ZN4core4cell4once17OnceCell$LT$T$GT$8try_init17h5f04ae72a6b83f12E+0x270>  // b.any
    6620:	9400a8b1 	bl	308e4 <_ZN75_$LT$gimli..read..abbrev..Attributes$u20$as$u20$core..ops..deref..Deref$GT$5deref17h293ca020b40554eaE>
    6624:	b4000681 	cbz	x1, 66f4 <_ZN4core4cell4once17OnceCell$LT$T$GT$8try_init17h5f04ae72a6b83f12E+0x2a4>
    6628:	f90013f7 	str	x23, [sp, #32]
    662c:	d37cec37 	lsl	x23, x1, #4
    6630:	aa0003f5 	mov	x21, x0
    6634:	f90023ff 	str	xzr, [sp, #64]
    6638:	b90037ff 	str	wzr, [sp, #52]
    663c:	b90053ff 	str	wzr, [sp, #80]
    6640:	1400003a 	b	6728 <_ZN4core4cell4once17OnceCell$LT$T$GT$8try_init17h5f04ae72a6b83f12E+0x2d8>
    6644:	f85783a8 	ldur	x8, [x29, #-136]
    6648:	d1000508 	sub	x8, x8, #0x1
    664c:	f81783a8 	stur	x8, [x29, #-136]
    6650:	14000029 	b	66f4 <_ZN4core4cell4once17OnceCell$LT$T$GT$8try_init17h5f04ae72a6b83f12E+0x2a4>
    6654:	f9400d28 	ldr	x8, [x9, #24]
    6658:	b4003488 	cbz	x8, 6ce8 <_ZN4core4cell4once17OnceCell$LT$T$GT$8try_init17h5f04ae72a6b83f12E+0x898>
    665c:	f9401129 	ldr	x9, [x9, #32]
    6660:	794a650b 	ldrh	w11, [x8, #1330]
    6664:	9113610d 	add	x13, x8, #0x4d8
    6668:	d101c100 	sub	x0, x8, #0x70
    666c:	9280000a 	mov	x10, #0xffffffffffffffff    	// #-1
    6670:	d37df16c 	lsl	x12, x11, #3
    6674:	b40001ac 	cbz	x12, 66a8 <_ZN4core4cell4once17OnceCell$LT$T$GT$8try_init17h5f04ae72a6b83f12E+0x258>
    6678:	f84085ae 	ldr	x14, [x13], #8
    667c:	d100218c 	sub	x12, x12, #0x8
    6680:	9101c000 	add	x0, x0, #0x70
    6684:	9100054a 	add	x10, x10, #0x1
    6688:	eb0e02bf 	cmp	x21, x14
    668c:	1a9f97ee 	cset	w14, hi  // hi = pmore
    6690:	5a9f21ce 	csinv	w14, w14, wzr, cs  // cs = hs, nlast
    6694:	12001dce 	and	w14, w14, #0xff
    6698:	710005df 	cmp	w14, #0x1
    669c:	54fffec0 	b.eq	6674 <_ZN4core4cell4once17OnceCell$LT$T$GT$8try_init17h5f04ae72a6b83f12E+0x224>  // b.none
    66a0:	34fffaee 	cbz	w14, 65fc <_ZN4core4cell4once17OnceCell$LT$T$GT$8try_init17h5f04ae72a6b83f12E+0x1ac>
    66a4:	14000002 	b	66ac <_ZN4core4cell4once17OnceCell$LT$T$GT$8try_init17h5f04ae72a6b83f12E+0x25c>
    66a8:	aa0b03ea 	mov	x10, x11
    66ac:	b40031e9 	cbz	x9, 6ce8 <_ZN4core4cell4once17OnceCell$LT$T$GT$8try_init17h5f04ae72a6b83f12E+0x898>
    66b0:	8b0a0d08 	add	x8, x8, x10, lsl #3
    66b4:	d1000529 	sub	x9, x9, #0x1
    66b8:	f9429d08 	ldr	x8, [x8, #1336]
    66bc:	17ffffe9 	b	6660 <_ZN4core4cell4once17OnceCell$LT$T$GT$8try_init17h5f04ae72a6b83f12E+0x210>
    66c0:	9400a889 	bl	308e4 <_ZN75_$LT$gimli..read..abbrev..Attributes$u20$as$u20$core..ops..deref..Deref$GT$5deref17h293ca020b40554eaE>
    66c4:	f85683a8 	ldur	x8, [x29, #-152]
    66c8:	aa0003e3 	mov	x3, x0
    66cc:	aa0103e4 	mov	x4, x1
    66d0:	d10203a0 	sub	x0, x29, #0x80
    66d4:	d102a3a1 	sub	x1, x29, #0xa8
    66d8:	aa1703f5 	mov	x21, x23
    66dc:	b9404902 	ldr	w2, [x8, #72]
    66e0:	94007a02 	bl	24ee8 <_ZN5gimli4read4unit15skip_attributes17h04dff5e02a177619E>
    66e4:	385803b7 	ldurb	w23, [x29, #-128]
    66e8:	71014aff 	cmp	w23, #0x52
    66ec:	54003b81 	b.ne	6e5c <_ZN4core4cell4once17OnceCell$LT$T$GT$8try_init17h5f04ae72a6b83f12E+0xa0c>  // b.any
    66f0:	aa1503f7 	mov	x23, x21
    66f4:	f85603a8 	ldur	x8, [x29, #-160]
    66f8:	5280008e 	mov	w14, #0x4                   	// #4
    66fc:	5280018f 	mov	w15, #0xc                   	// #12
    6700:	52800030 	mov	w16, #0x1                   	// #1
    6704:	b5fff288 	cbnz	x8, 6554 <_ZN4core4cell4once17OnceCell$LT$T$GT$8try_init17h5f04ae72a6b83f12E+0x104>
    6708:	1400017c 	b	6cf8 <_ZN4core4cell4once17OnceCell$LT$T$GT$8try_init17h5f04ae72a6b83f12E+0x8a8>
    670c:	f85d83a8 	ldur	x8, [x29, #-40]
    6710:	f9001fe8 	str	x8, [sp, #56]
    6714:	52800028 	mov	w8, #0x1                   	// #1
    6718:	b90047e8 	str	w8, [sp, #68]
    671c:	f10042f7 	subs	x23, x23, #0x10
    6720:	910042b5 	add	x21, x21, #0x10
    6724:	540017a0 	b.eq	6a18 <_ZN4core4cell4once17OnceCell$LT$T$GT$8try_init17h5f04ae72a6b83f12E+0x5c8>  // b.none
    6728:	f85683a8 	ldur	x8, [x29, #-152]
    672c:	3dc002a0 	ldr	q0, [x21]
    6730:	d10203a0 	sub	x0, x29, #0x80
    6734:	d102a3a1 	sub	x1, x29, #0xa8
    6738:	d100c3a3 	sub	x3, x29, #0x30
    673c:	b9404902 	ldr	w2, [x8, #72]
    6740:	d10203a8 	sub	x8, x29, #0x80
    6744:	3d801500 	str	q0, [x8, #80]
    6748:	940075ff 	bl	23f44 <_ZN5gimli4read4unit15parse_attribute17h1ad3e2b925521b15E>
    674c:	f85803a8 	ldur	x8, [x29, #-128]
    6750:	f100b91f 	cmp	x8, #0x2e
    6754:	54002c00 	b.eq	6cd4 <_ZN4core4cell4once17OnceCell$LT$T$GT$8try_init17h5f04ae72a6b83f12E+0x884>  // b.none
    6758:	785983a8 	ldurh	w8, [x29, #-104]
    675c:	7101551f 	cmp	w8, #0x55
    6760:	540007e0 	b.eq	685c <_ZN4core4cell4once17OnceCell$LT$T$GT$8try_init17h5f04ae72a6b83f12E+0x40c>  // b.none
    6764:	7100491f 	cmp	w8, #0x12
    6768:	540003e0 	b.eq	67e4 <_ZN4core4cell4once17OnceCell$LT$T$GT$8try_init17h5f04ae72a6b83f12E+0x394>  // b.none
    676c:	7100451f 	cmp	w8, #0x11
    6770:	54fffd61 	b.ne	671c <_ZN4core4cell4once17OnceCell$LT$T$GT$8try_init17h5f04ae72a6b83f12E+0x2cc>  // b.any
    6774:	d100c3a0 	sub	x0, x29, #0x30
    6778:	d10203a1 	sub	x1, x29, #0x80
    677c:	94007b1a 	bl	253e4 <_ZN5gimli4read4unit18Attribute$LT$R$GT$5value17h7f5d1f83361d8fa8E>
    6780:	f85d03a8 	ldur	x8, [x29, #-48]
    6784:	b4fffc48 	cbz	x8, 670c <_ZN4core4cell4once17OnceCell$LT$T$GT$8try_init17h5f04ae72a6b83f12E+0x2bc>
    6788:	f100311f 	cmp	x8, #0xc
    678c:	54fffc81 	b.ne	671c <_ZN4core4cell4once17OnceCell$LT$T$GT$8try_init17h5f04ae72a6b83f12E+0x2cc>  // b.any
    6790:	eb1b029f 	cmp	x20, x27
    6794:	540034a3 	b.cc	6e28 <_ZN4core4cell4once17OnceCell$LT$T$GT$8try_init17h5f04ae72a6b83f12E+0x9d8>  // b.lo, b.ul, b.last
    6798:	f85d83a8 	ldur	x8, [x29, #-40]
    679c:	f9405fe9 	ldr	x9, [sp, #184]
    67a0:	9b097d0a 	mul	x10, x8, x9
    67a4:	f94067e8 	ldr	x8, [sp, #200]
    67a8:	eb0a0109 	subs	x9, x8, x10
    67ac:	54003463 	b.cc	6e38 <_ZN4core4cell4once17OnceCell$LT$T$GT$8try_init17h5f04ae72a6b83f12E+0x9e8>  // b.lo, b.ul, b.last
    67b0:	f94063e8 	ldr	x8, [sp, #192]
    67b4:	12001f0b 	and	w11, w24, #0xff
    67b8:	71000d7f 	cmp	w11, #0x3
    67bc:	8b0a0108 	add	x8, x8, x10
    67c0:	54000bcc 	b.gt	6938 <_ZN4core4cell4once17OnceCell$LT$T$GT$8try_init17h5f04ae72a6b83f12E+0x4e8>
    67c4:	7100057f 	cmp	w11, #0x1
    67c8:	54000f40 	b.eq	69b0 <_ZN4core4cell4once17OnceCell$LT$T$GT$8try_init17h5f04ae72a6b83f12E+0x560>  // b.none
    67cc:	7100097f 	cmp	w11, #0x2
    67d0:	54003661 	b.ne	6e9c <_ZN4core4cell4once17OnceCell$LT$T$GT$8try_init17h5f04ae72a6b83f12E+0xa4c>  // b.any
    67d4:	f100053f 	cmp	x9, #0x1
    67d8:	54003389 	b.ls	6e48 <_ZN4core4cell4once17OnceCell$LT$T$GT$8try_init17h5f04ae72a6b83f12E+0x9f8>  // b.plast
    67dc:	79400108 	ldrh	w8, [x8]
    67e0:	1400007c 	b	69d0 <_ZN4core4cell4once17OnceCell$LT$T$GT$8try_init17h5f04ae72a6b83f12E+0x580>
    67e4:	d100c3a0 	sub	x0, x29, #0x30
    67e8:	d10203a1 	sub	x1, x29, #0x80
    67ec:	94007afe 	bl	253e4 <_ZN5gimli4read4unit18Attribute$LT$R$GT$5value17h7f5d1f83361d8fa8E>
    67f0:	f85d03a8 	ldur	x8, [x29, #-48]
    67f4:	b4000888 	cbz	x8, 6904 <_ZN4core4cell4once17OnceCell$LT$T$GT$8try_init17h5f04ae72a6b83f12E+0x4b4>
    67f8:	f1001d1f 	cmp	x8, #0x7
    67fc:	540007a0 	b.eq	68f0 <_ZN4core4cell4once17OnceCell$LT$T$GT$8try_init17h5f04ae72a6b83f12E+0x4a0>  // b.none
    6800:	f100311f 	cmp	x8, #0xc
    6804:	54fff8c1 	b.ne	671c <_ZN4core4cell4once17OnceCell$LT$T$GT$8try_init17h5f04ae72a6b83f12E+0x2cc>  // b.any
    6808:	eb1b029f 	cmp	x20, x27
    680c:	540030e3 	b.cc	6e28 <_ZN4core4cell4once17OnceCell$LT$T$GT$8try_init17h5f04ae72a6b83f12E+0x9d8>  // b.lo, b.ul, b.last
    6810:	f85d83a8 	ldur	x8, [x29, #-40]
    6814:	f9405fe9 	ldr	x9, [sp, #184]
    6818:	9b097d0a 	mul	x10, x8, x9
    681c:	f94067e8 	ldr	x8, [sp, #200]
    6820:	eb0a0109 	subs	x9, x8, x10
    6824:	540030a3 	b.cc	6e38 <_ZN4core4cell4once17OnceCell$LT$T$GT$8try_init17h5f04ae72a6b83f12E+0x9e8>  // b.lo, b.ul, b.last
    6828:	f94063e8 	ldr	x8, [sp, #192]
    682c:	12001f0b 	and	w11, w24, #0xff
    6830:	71000d7f 	cmp	w11, #0x3
    6834:	8b0a0108 	add	x8, x8, x10
    6838:	540009ec 	b.gt	6974 <_ZN4core4cell4once17OnceCell$LT$T$GT$8try_init17h5f04ae72a6b83f12E+0x524>
    683c:	7100057f 	cmp	w11, #0x1
    6840:	54000d20 	b.eq	69e4 <_ZN4core4cell4once17OnceCell$LT$T$GT$8try_init17h5f04ae72a6b83f12E+0x594>  // b.none
    6844:	7100097f 	cmp	w11, #0x2
    6848:	54003321 	b.ne	6eac <_ZN4core4cell4once17OnceCell$LT$T$GT$8try_init17h5f04ae72a6b83f12E+0xa5c>  // b.any
    684c:	f100053f 	cmp	x9, #0x1
    6850:	54002fc9 	b.ls	6e48 <_ZN4core4cell4once17OnceCell$LT$T$GT$8try_init17h5f04ae72a6b83f12E+0x9f8>  // b.plast
    6854:	79400108 	ldrh	w8, [x8]
    6858:	1400006b 	b	6a04 <_ZN4core4cell4once17OnceCell$LT$T$GT$8try_init17h5f04ae72a6b83f12E+0x5b4>
    685c:	d100c3a0 	sub	x0, x29, #0x30
    6860:	d10203a1 	sub	x1, x29, #0x80
    6864:	94007ae0 	bl	253e4 <_ZN5gimli4read4unit18Attribute$LT$R$GT$5value17h7f5d1f83361d8fa8E>
    6868:	a97d23a9 	ldp	x9, x8, [x29, #-48]
    686c:	f100593f 	cmp	x9, #0x16
    6870:	54000340 	b.eq	68d8 <_ZN4core4cell4once17OnceCell$LT$T$GT$8try_init17h5f04ae72a6b83f12E+0x488>  // b.none
    6874:	f100613f 	cmp	x9, #0x18
    6878:	54000361 	b.ne	68e4 <_ZN4core4cell4once17OnceCell$LT$T$GT$8try_init17h5f04ae72a6b83f12E+0x494>  // b.any
    687c:	f9405be9 	ldr	x9, [sp, #176]
    6880:	eb19013f 	cmp	x9, x25
    6884:	54002fc3 	b.cc	6e7c <_ZN4core4cell4once17OnceCell$LT$T$GT$8try_init17h5f04ae72a6b83f12E+0xa2c>  // b.lo, b.ul, b.last
    6888:	a94927ea 	ldp	x10, x9, [sp, #144]
    688c:	9b0a7d08 	mul	x8, x8, x10
    6890:	eb080129 	subs	x9, x9, x8
    6894:	54002f83 	b.cc	6e84 <_ZN4core4cell4once17OnceCell$LT$T$GT$8try_init17h5f04ae72a6b83f12E+0xa34>  // b.lo, b.ul, b.last
    6898:	b9408fea 	ldr	w10, [sp, #140]
    689c:	7120015f 	cmp	w10, #0x800
    68a0:	f94053ea 	ldr	x10, [sp, #160]
    68a4:	8b080148 	add	x8, x10, x8
    68a8:	54000381 	b.ne	6918 <_ZN4core4cell4once17OnceCell$LT$T$GT$8try_init17h5f04ae72a6b83f12E+0x4c8>  // b.any
    68ac:	f1001d3f 	cmp	x9, #0x7
    68b0:	54002ee9 	b.ls	6e8c <_ZN4core4cell4once17OnceCell$LT$T$GT$8try_init17h5f04ae72a6b83f12E+0xa3c>  // b.plast
    68b4:	39401909 	ldrb	w9, [x8, #6]
    68b8:	7940090a 	ldrh	w10, [x8, #4]
    68bc:	b940010b 	ldr	w11, [x8]
    68c0:	39401d08 	ldrb	w8, [x8, #7]
    68c4:	2a094149 	orr	w9, w10, w9, lsl #16
    68c8:	d378dd6a 	lsl	x10, x11, #8
    68cc:	aa09a149 	orr	x9, x10, x9, lsl #40
    68d0:	93c92108 	extr	x8, x8, x9, #8
    68d4:	14000014 	b	6924 <_ZN4core4cell4once17OnceCell$LT$T$GT$8try_init17h5f04ae72a6b83f12E+0x4d4>
    68d8:	f94057e9 	ldr	x9, [sp, #168]
    68dc:	8b090108 	add	x8, x8, x9
    68e0:	14000012 	b	6928 <_ZN4core4cell4once17OnceCell$LT$T$GT$8try_init17h5f04ae72a6b83f12E+0x4d8>
    68e4:	f94027e8 	ldr	x8, [sp, #72]
    68e8:	b90053ff 	str	wzr, [sp, #80]
    68ec:	14000011 	b	6930 <_ZN4core4cell4once17OnceCell$LT$T$GT$8try_init17h5f04ae72a6b83f12E+0x4e0>
    68f0:	f85d83a8 	ldur	x8, [x29, #-40]
    68f4:	f9000be8 	str	x8, [sp, #16]
    68f8:	52800028 	mov	w8, #0x1                   	// #1
    68fc:	b90037e8 	str	w8, [sp, #52]
    6900:	17ffff87 	b	671c <_ZN4core4cell4once17OnceCell$LT$T$GT$8try_init17h5f04ae72a6b83f12E+0x2cc>
    6904:	f85d83a8 	ldur	x8, [x29, #-40]
    6908:	f90017e8 	str	x8, [sp, #40]
    690c:	52800028 	mov	w8, #0x1                   	// #1
    6910:	b90043e8 	str	w8, [sp, #64]
    6914:	17ffff82 	b	671c <_ZN4core4cell4once17OnceCell$LT$T$GT$8try_init17h5f04ae72a6b83f12E+0x2cc>
    6918:	f1000d3f 	cmp	x9, #0x3
    691c:	54002b89 	b.ls	6e8c <_ZN4core4cell4once17OnceCell$LT$T$GT$8try_init17h5f04ae72a6b83f12E+0xa3c>  // b.plast
    6920:	b9400108 	ldr	w8, [x8]
    6924:	8b190108 	add	x8, x8, x25
    6928:	52800029 	mov	w9, #0x1                   	// #1
    692c:	b90053e9 	str	w9, [sp, #80]
    6930:	f90027e8 	str	x8, [sp, #72]
    6934:	17ffff7a 	b	671c <_ZN4core4cell4once17OnceCell$LT$T$GT$8try_init17h5f04ae72a6b83f12E+0x2cc>
    6938:	7100117f 	cmp	w11, #0x4
    693c:	54000440 	b.eq	69c4 <_ZN4core4cell4once17OnceCell$LT$T$GT$8try_init17h5f04ae72a6b83f12E+0x574>  // b.none
    6940:	7100217f 	cmp	w11, #0x8
    6944:	54002ac1 	b.ne	6e9c <_ZN4core4cell4once17OnceCell$LT$T$GT$8try_init17h5f04ae72a6b83f12E+0xa4c>  // b.any
    6948:	f1001d3f 	cmp	x9, #0x7
    694c:	540027e9 	b.ls	6e48 <_ZN4core4cell4once17OnceCell$LT$T$GT$8try_init17h5f04ae72a6b83f12E+0x9f8>  // b.plast
    6950:	39401909 	ldrb	w9, [x8, #6]
    6954:	7940090a 	ldrh	w10, [x8, #4]
    6958:	b940010b 	ldr	w11, [x8]
    695c:	39401d08 	ldrb	w8, [x8, #7]
    6960:	2a094149 	orr	w9, w10, w9, lsl #16
    6964:	d378dd6a 	lsl	x10, x11, #8
    6968:	aa09a149 	orr	x9, x10, x9, lsl #40
    696c:	93c92108 	extr	x8, x8, x9, #8
    6970:	14000018 	b	69d0 <_ZN4core4cell4once17OnceCell$LT$T$GT$8try_init17h5f04ae72a6b83f12E+0x580>
    6974:	7100117f 	cmp	w11, #0x4
    6978:	54000400 	b.eq	69f8 <_ZN4core4cell4once17OnceCell$LT$T$GT$8try_init17h5f04ae72a6b83f12E+0x5a8>  // b.none
    697c:	7100217f 	cmp	w11, #0x8
    6980:	54002961 	b.ne	6eac <_ZN4core4cell4once17OnceCell$LT$T$GT$8try_init17h5f04ae72a6b83f12E+0xa5c>  // b.any
    6984:	f1001d3f 	cmp	x9, #0x7
    6988:	54002609 	b.ls	6e48 <_ZN4core4cell4once17OnceCell$LT$T$GT$8try_init17h5f04ae72a6b83f12E+0x9f8>  // b.plast
    698c:	39401909 	ldrb	w9, [x8, #6]
    6990:	7940090a 	ldrh	w10, [x8, #4]
    6994:	b940010b 	ldr	w11, [x8]
    6998:	39401d08 	ldrb	w8, [x8, #7]
    699c:	2a094149 	orr	w9, w10, w9, lsl #16
    69a0:	d378dd6a 	lsl	x10, x11, #8
    69a4:	aa09a149 	orr	x9, x10, x9, lsl #40
    69a8:	93c92108 	extr	x8, x8, x9, #8
    69ac:	14000016 	b	6a04 <_ZN4core4cell4once17OnceCell$LT$T$GT$8try_init17h5f04ae72a6b83f12E+0x5b4>
    69b0:	f94067e9 	ldr	x9, [sp, #200]
    69b4:	eb0a013f 	cmp	x9, x10
    69b8:	54002480 	b.eq	6e48 <_ZN4core4cell4once17OnceCell$LT$T$GT$8try_init17h5f04ae72a6b83f12E+0x9f8>  // b.none
    69bc:	39400108 	ldrb	w8, [x8]
    69c0:	14000004 	b	69d0 <_ZN4core4cell4once17OnceCell$LT$T$GT$8try_init17h5f04ae72a6b83f12E+0x580>
    69c4:	f1000d3f 	cmp	x9, #0x3
    69c8:	54002409 	b.ls	6e48 <_ZN4core4cell4once17OnceCell$LT$T$GT$8try_init17h5f04ae72a6b83f12E+0x9f8>  // b.plast
    69cc:	b9400108 	ldr	w8, [x8]
    69d0:	52800029 	mov	w9, #0x1                   	// #1
    69d4:	f9000fe8 	str	x8, [sp, #24]
    69d8:	b90047e9 	str	w9, [sp, #68]
    69dc:	f9001fe8 	str	x8, [sp, #56]
    69e0:	17ffff4f 	b	671c <_ZN4core4cell4once17OnceCell$LT$T$GT$8try_init17h5f04ae72a6b83f12E+0x2cc>
    69e4:	f94067e9 	ldr	x9, [sp, #200]
    69e8:	eb0a013f 	cmp	x9, x10
    69ec:	540022e0 	b.eq	6e48 <_ZN4core4cell4once17OnceCell$LT$T$GT$8try_init17h5f04ae72a6b83f12E+0x9f8>  // b.none
    69f0:	39400108 	ldrb	w8, [x8]
    69f4:	14000004 	b	6a04 <_ZN4core4cell4once17OnceCell$LT$T$GT$8try_init17h5f04ae72a6b83f12E+0x5b4>
    69f8:	f1000d3f 	cmp	x9, #0x3
    69fc:	54002269 	b.ls	6e48 <_ZN4core4cell4once17OnceCell$LT$T$GT$8try_init17h5f04ae72a6b83f12E+0x9f8>  // b.plast
    6a00:	b9400108 	ldr	w8, [x8]
    6a04:	52800029 	mov	w9, #0x1                   	// #1
    6a08:	f90007e8 	str	x8, [sp, #8]
    6a0c:	b90043e9 	str	w9, [sp, #64]
    6a10:	f90017e8 	str	x8, [sp, #40]
    6a14:	17ffff42 	b	671c <_ZN4core4cell4once17OnceCell$LT$T$GT$8try_init17h5f04ae72a6b83f12E+0x2cc>
    6a18:	b94053e8 	ldr	w8, [sp, #80]
    6a1c:	36000428 	tbz	w8, #0, 6aa0 <_ZN4core4cell4once17OnceCell$LT$T$GT$8try_init17h5f04ae72a6b83f12E+0x650>
    6a20:	a94727ea 	ldp	x10, x9, [sp, #112]
    6a24:	f94037e8 	ldr	x8, [sp, #104]
    6a28:	f8686928 	ldr	x8, [x9, x8]
    6a2c:	f86a6935 	ldr	x21, [x9, x10]
    6a30:	f94027ea 	ldr	x10, [sp, #72]
    6a34:	eb0a0108 	subs	x8, x8, x10
    6a38:	540022c3 	b.cc	6e90 <_ZN4core4cell4once17OnceCell$LT$T$GT$8try_init17h5f04ae72a6b83f12E+0xa40>  // b.lo, b.ul, b.last
    6a3c:	f94043e9 	ldr	x9, [sp, #128]
    6a40:	d100c3a0 	sub	x0, x29, #0x30
    6a44:	d10203a1 	sub	x1, x29, #0x80
    6a48:	f9002bfa 	str	x26, [sp, #80]
    6a4c:	a93853a9 	stp	x9, x20, [x29, #-128]
    6a50:	f9402fe9 	ldr	x9, [sp, #88]
    6a54:	781b03b8 	sturh	w24, [x29, #-80]
    6a58:	a9396fa9 	stp	x9, x27, [x29, #-112]
    6a5c:	8b0a02a9 	add	x9, x21, x10
    6a60:	a93a23a9 	stp	x9, x8, [x29, #-96]
    6a64:	294c27e8 	ldp	w8, w9, [sp, #96]
    6a68:	781b23a9 	sturh	w9, [x29, #-78]
    6a6c:	381b43a8 	sturb	w8, [x29, #-76]
    6a70:	94008af0 	bl	29630 <_ZN5gimli4read8rnglists20RngListIter$LT$R$GT$4next17hc968f80fef6e1452E>
    6a74:	a97d6ba8 	ldp	x8, x26, [x29, #-48]
    6a78:	f85e03b5 	ldur	x21, [x29, #-32]
    6a7c:	f100091f 	cmp	x8, #0x2
    6a80:	54000881 	b.ne	6b90 <_ZN4core4cell4once17OnceCell$LT$T$GT$8try_init17h5f04ae72a6b83f12E+0x740>  // b.any
    6a84:	12001f57 	and	w23, w26, #0xff
    6a88:	71014aff 	cmp	w23, #0x52
    6a8c:	54002181 	b.ne	6ebc <_ZN4core4cell4once17OnceCell$LT$T$GT$8try_init17h5f04ae72a6b83f12E+0xa6c>  // b.any
    6a90:	36400bda 	tbz	w26, #8, 6c08 <_ZN4core4cell4once17OnceCell$LT$T$GT$8try_init17h5f04ae72a6b83f12E+0x7b8>
    6a94:	f9402bfa 	ldr	x26, [sp, #80]
    6a98:	f94013f7 	ldr	x23, [sp, #32]
    6a9c:	14000025 	b	6b30 <_ZN4core4cell4once17OnceCell$LT$T$GT$8try_init17h5f04ae72a6b83f12E+0x6e0>
    6aa0:	29482be8 	ldp	w8, w10, [sp, #64]
    6aa4:	f94013f7 	ldr	x23, [sp, #32]
    6aa8:	f9401fe9 	ldr	x9, [sp, #56]
    6aac:	0a080148 	and	w8, w10, w8
    6ab0:	36000188 	tbz	w8, #0, 6ae0 <_ZN4core4cell4once17OnceCell$LT$T$GT$8try_init17h5f04ae72a6b83f12E+0x690>
    6ab4:	f94017f5 	ldr	x21, [sp, #40]
    6ab8:	eb15013f 	cmp	x9, x21
    6abc:	54ffe1c2 	b.cs	66f4 <_ZN4core4cell4once17OnceCell$LT$T$GT$8try_init17h5f04ae72a6b83f12E+0x2a4>  // b.hs, b.nlast
    6ac0:	f85403a8 	ldur	x8, [x29, #-192]
    6ac4:	eb08035f 	cmp	x26, x8
    6ac8:	54000261 	b.ne	6b14 <_ZN4core4cell4once17OnceCell$LT$T$GT$8try_init17h5f04ae72a6b83f12E+0x6c4>  // b.any
    6acc:	d10303a0 	sub	x0, x29, #0xc0
    6ad0:	9400088e 	bl	8d08 <_ZN5alloc7raw_vec19RawVec$LT$T$C$A$GT$8grow_one17h235a7742b0bc8973E>
    6ad4:	f85483bc 	ldur	x28, [x29, #-184]
    6ad8:	f94017f5 	ldr	x21, [sp, #40]
    6adc:	1400000e 	b	6b14 <_ZN4core4cell4once17OnceCell$LT$T$GT$8try_init17h5f04ae72a6b83f12E+0x6c4>
    6ae0:	b94037e8 	ldr	w8, [sp, #52]
    6ae4:	0a080148 	and	w8, w10, w8
    6ae8:	3607e068 	tbz	w8, #0, 66f4 <_ZN4core4cell4once17OnceCell$LT$T$GT$8try_init17h5f04ae72a6b83f12E+0x2a4>
    6aec:	f9400be8 	ldr	x8, [sp, #16]
    6af0:	8b080135 	add	x21, x9, x8
    6af4:	eb15013f 	cmp	x9, x21
    6af8:	54ffdfe2 	b.cs	66f4 <_ZN4core4cell4once17OnceCell$LT$T$GT$8try_init17h5f04ae72a6b83f12E+0x2a4>  // b.hs, b.nlast
    6afc:	f85403a8 	ldur	x8, [x29, #-192]
    6b00:	eb08035f 	cmp	x26, x8
    6b04:	54000081 	b.ne	6b14 <_ZN4core4cell4once17OnceCell$LT$T$GT$8try_init17h5f04ae72a6b83f12E+0x6c4>  // b.any
    6b08:	d10303a0 	sub	x0, x29, #0xc0
    6b0c:	9400087f 	bl	8d08 <_ZN5alloc7raw_vec19RawVec$LT$T$C$A$GT$8grow_one17h235a7742b0bc8973E>
    6b10:	f85483bc 	ldur	x28, [x29, #-184]
    6b14:	52800308 	mov	w8, #0x18                  	// #24
    6b18:	f9401fe9 	ldr	x9, [sp, #56]
    6b1c:	9b087348 	madd	x8, x26, x8, x28
    6b20:	9100075a 	add	x26, x26, #0x1
    6b24:	a9005509 	stp	x9, x21, [x8]
    6b28:	f9000916 	str	x22, [x8, #16]
    6b2c:	f81503ba 	stur	x26, [x29, #-176]
    6b30:	a94d27e8 	ldp	x8, x9, [sp, #208]
    6b34:	f81803bf 	stur	xzr, [x29, #-128]
    6b38:	eb0902df 	cmp	x22, x9
    6b3c:	f81c03a8 	stur	x8, [x29, #-64]
    6b40:	54000061 	b.ne	6b4c <_ZN4core4cell4once17OnceCell$LT$T$GT$8try_init17h5f04ae72a6b83f12E+0x6fc>  // b.any
    6b44:	910363e0 	add	x0, sp, #0xd8
    6b48:	9400088a 	bl	8d70 <_ZN5alloc7raw_vec19RawVec$LT$T$C$A$GT$8grow_one17h2403fd2a7e7a58b6E>
    6b4c:	f94073e8 	ldr	x8, [sp, #224]
    6b50:	52800909 	mov	w9, #0x48                  	// #72
    6b54:	3cd903a0 	ldur	q0, [x29, #-112]
    6b58:	9b0922c8 	madd	x8, x22, x9, x8
    6b5c:	d10203a9 	sub	x9, x29, #0x80
    6b60:	910006d6 	add	x22, x22, #0x1
    6b64:	f90077f6 	str	x22, [sp, #232]
    6b68:	3d800500 	str	q0, [x8, #16]
    6b6c:	3cda03a0 	ldur	q0, [x29, #-96]
    6b70:	3d800900 	str	q0, [x8, #32]
    6b74:	3dc00d20 	ldr	q0, [x9, #48]
    6b78:	3d800d00 	str	q0, [x8, #48]
    6b7c:	f85c03a9 	ldur	x9, [x29, #-64]
    6b80:	f9002109 	str	x9, [x8, #64]
    6b84:	3cd803a0 	ldur	q0, [x29, #-128]
    6b88:	3d800100 	str	q0, [x8]
    6b8c:	17fffeda 	b	66f4 <_ZN4core4cell4once17OnceCell$LT$T$GT$8try_init17h5f04ae72a6b83f12E+0x2a4>
    6b90:	2a1f03f7 	mov	w23, wzr
    6b94:	14000012 	b	6bdc <_ZN4core4cell4once17OnceCell$LT$T$GT$8try_init17h5f04ae72a6b83f12E+0x78c>
    6b98:	f85483bc 	ldur	x28, [x29, #-184]
    6b9c:	f9402be9 	ldr	x9, [sp, #80]
    6ba0:	52800308 	mov	w8, #0x18                  	// #24
    6ba4:	52800037 	mov	w23, #0x1                   	// #1
    6ba8:	9b087128 	madd	x8, x9, x8, x28
    6bac:	91000529 	add	x9, x9, #0x1
    6bb0:	f9002be9 	str	x9, [sp, #80]
    6bb4:	a900551a 	stp	x26, x21, [x8]
    6bb8:	f9000916 	str	x22, [x8, #16]
    6bbc:	f81503a9 	stur	x9, [x29, #-176]
    6bc0:	d100c3a0 	sub	x0, x29, #0x30
    6bc4:	d10203a1 	sub	x1, x29, #0x80
    6bc8:	94008a9a 	bl	29630 <_ZN5gimli4read8rnglists20RngListIter$LT$R$GT$4next17hc968f80fef6e1452E>
    6bcc:	a97d6ba8 	ldp	x8, x26, [x29, #-48]
    6bd0:	f85e03b5 	ldur	x21, [x29, #-32]
    6bd4:	f100091f 	cmp	x8, #0x2
    6bd8:	54fff560 	b.eq	6a84 <_ZN4core4cell4once17OnceCell$LT$T$GT$8try_init17h5f04ae72a6b83f12E+0x634>  // b.none
    6bdc:	36000148 	tbz	w8, #0, 6c04 <_ZN4core4cell4once17OnceCell$LT$T$GT$8try_init17h5f04ae72a6b83f12E+0x7b4>
    6be0:	eb15035f 	cmp	x26, x21
    6be4:	54fffee2 	b.cs	6bc0 <_ZN4core4cell4once17OnceCell$LT$T$GT$8try_init17h5f04ae72a6b83f12E+0x770>  // b.hs, b.nlast
    6be8:	f85403a8 	ldur	x8, [x29, #-192]
    6bec:	f9402be9 	ldr	x9, [sp, #80]
    6bf0:	eb08013f 	cmp	x9, x8
    6bf4:	54fffd41 	b.ne	6b9c <_ZN4core4cell4once17OnceCell$LT$T$GT$8try_init17h5f04ae72a6b83f12E+0x74c>  // b.any
    6bf8:	d10303a0 	sub	x0, x29, #0xc0
    6bfc:	94000843 	bl	8d08 <_ZN5alloc7raw_vec19RawVec$LT$T$C$A$GT$8grow_one17h235a7742b0bc8973E>
    6c00:	17ffffe6 	b	6b98 <_ZN4core4cell4once17OnceCell$LT$T$GT$8try_init17h5f04ae72a6b83f12E+0x748>
    6c04:	3707f497 	tbnz	w23, #0, 6a94 <_ZN4core4cell4once17OnceCell$LT$T$GT$8try_init17h5f04ae72a6b83f12E+0x644>
    6c08:	f9402bfa 	ldr	x26, [sp, #80]
    6c0c:	f94013f7 	ldr	x23, [sp, #32]
    6c10:	17fffeb9 	b	66f4 <_ZN4core4cell4once17OnceCell$LT$T$GT$8try_init17h5f04ae72a6b83f12E+0x2a4>
    6c14:	aa1f03f9 	mov	x25, xzr
    6c18:	2a1f03f8 	mov	w24, wzr
    6c1c:	528000d7 	mov	w23, #0x6                   	// #6
    6c20:	14000005 	b	6c34 <_ZN4core4cell4once17OnceCell$LT$T$GT$8try_init17h5f04ae72a6b83f12E+0x7e4>
    6c24:	aa1f03f9 	mov	x25, xzr
    6c28:	2a1f03f8 	mov	w24, wzr
    6c2c:	8b080155 	add	x21, x10, x8
    6c30:	52800277 	mov	w23, #0x13                  	// #19
    6c34:	f85403a8 	ldur	x8, [x29, #-192]
    6c38:	b40000c8 	cbz	x8, 6c50 <_ZN4core4cell4once17OnceCell$LT$T$GT$8try_init17h5f04ae72a6b83f12E+0x800>
    6c3c:	8b080508 	add	x8, x8, x8, lsl #1
    6c40:	f85483a0 	ldur	x0, [x29, #-184]
    6c44:	52800102 	mov	w2, #0x8                   	// #8
    6c48:	d37df101 	lsl	x1, x8, #3
    6c4c:	94000c89 	bl	9e70 <_RNvCsiGVaDesi5rv_7___rustc14___rust_dealloc>
    6c50:	f94073f4 	ldr	x20, [sp, #224]
    6c54:	b40002f6 	cbz	x22, 6cb0 <_ZN4core4cell4once17OnceCell$LT$T$GT$8try_init17h5f04ae72a6b83f12E+0x860>
    6c58:	9100429a 	add	x26, x20, #0x10
    6c5c:	14000004 	b	6c6c <_ZN4core4cell4once17OnceCell$LT$T$GT$8try_init17h5f04ae72a6b83f12E+0x81c>
    6c60:	f10006d6 	subs	x22, x22, #0x1
    6c64:	9101235a 	add	x26, x26, #0x48
    6c68:	54000240 	b.eq	6cb0 <_ZN4core4cell4once17OnceCell$LT$T$GT$8try_init17h5f04ae72a6b83f12E+0x860>  // b.none
    6c6c:	f85f0348 	ldur	x8, [x26, #-16]
    6c70:	b4ffff88 	cbz	x8, 6c60 <_ZN4core4cell4once17OnceCell$LT$T$GT$8try_init17h5f04ae72a6b83f12E+0x810>
    6c74:	f85f8340 	ldur	x0, [x26, #-8]
    6c78:	b4ffff40 	cbz	x0, 6c60 <_ZN4core4cell4once17OnceCell$LT$T$GT$8try_init17h5f04ae72a6b83f12E+0x810>
    6c7c:	f9400348 	ldr	x8, [x26]
    6c80:	b40000a8 	cbz	x8, 6c94 <_ZN4core4cell4once17OnceCell$LT$T$GT$8try_init17h5f04ae72a6b83f12E+0x844>
    6c84:	8b080508 	add	x8, x8, x8, lsl #1
    6c88:	52800102 	mov	w2, #0x8                   	// #8
    6c8c:	d37ced01 	lsl	x1, x8, #4
    6c90:	94000c78 	bl	9e70 <_RNvCsiGVaDesi5rv_7___rustc14___rust_dealloc>
    6c94:	f9400b48 	ldr	x8, [x26, #16]
    6c98:	b4fffe48 	cbz	x8, 6c60 <_ZN4core4cell4once17OnceCell$LT$T$GT$8try_init17h5f04ae72a6b83f12E+0x810>
    6c9c:	f9400740 	ldr	x0, [x26, #8]
    6ca0:	d37be901 	lsl	x1, x8, #5
    6ca4:	52800102 	mov	w2, #0x8                   	// #8
    6ca8:	94000c72 	bl	9e70 <_RNvCsiGVaDesi5rv_7___rustc14___rust_dealloc>
    6cac:	17ffffed 	b	6c60 <_ZN4core4cell4once17OnceCell$LT$T$GT$8try_init17h5f04ae72a6b83f12E+0x810>
    6cb0:	f9406fe8 	ldr	x8, [sp, #216]
    6cb4:	b40000c8 	cbz	x8, 6ccc <_ZN4core4cell4once17OnceCell$LT$T$GT$8try_init17h5f04ae72a6b83f12E+0x87c>
    6cb8:	8b080d08 	add	x8, x8, x8, lsl #3
    6cbc:	aa1403e0 	mov	x0, x20
    6cc0:	52800102 	mov	w2, #0x8                   	// #8
    6cc4:	d37df101 	lsl	x1, x8, #3
    6cc8:	94000c6a 	bl	9e70 <_RNvCsiGVaDesi5rv_7___rustc14___rust_dealloc>
    6ccc:	aa1f03f4 	mov	x20, xzr
    6cd0:	14000041 	b	6dd4 <_ZN4core4cell4once17OnceCell$LT$T$GT$8try_init17h5f04ae72a6b83f12E+0x984>
    6cd4:	a978d7a8 	ldp	x8, x21, [x29, #-120]
    6cd8:	d348fd18 	lsr	x24, x8, #8
    6cdc:	d350fd19 	lsr	x25, x8, #16
    6ce0:	12001d17 	and	w23, w8, #0xff
    6ce4:	17ffffd4 	b	6c34 <_ZN4core4cell4once17OnceCell$LT$T$GT$8try_init17h5f04ae72a6b83f12E+0x7e4>
    6ce8:	aa1f03f9 	mov	x25, xzr
    6cec:	2a1f03f8 	mov	w24, wzr
    6cf0:	52800257 	mov	w23, #0x12                  	// #18
    6cf4:	17ffffd0 	b	6c34 <_ZN4core4cell4once17OnceCell$LT$T$GT$8try_init17h5f04ae72a6b83f12E+0x7e4>
    6cf8:	f1000b5f 	cmp	x26, #0x2
    6cfc:	54000e62 	b.cs	6ec8 <_ZN4core4cell4once17OnceCell$LT$T$GT$8try_init17h5f04ae72a6b83f12E+0xa78>  // b.hs, b.nlast
    6d00:	a94e5bf4 	ldp	x20, x22, [sp, #224]
    6d04:	f9406fe8 	ldr	x8, [sp, #216]
    6d08:	eb16011f 	cmp	x8, x22
    6d0c:	54000189 	b.ls	6d3c <_ZN4core4cell4once17OnceCell$LT$T$GT$8try_init17h5f04ae72a6b83f12E+0x8ec>  // b.plast
    6d10:	8b080d08 	add	x8, x8, x8, lsl #3
    6d14:	d37df101 	lsl	x1, x8, #3
    6d18:	b40003b6 	cbz	x22, 6d8c <_ZN4core4cell4once17OnceCell$LT$T$GT$8try_init17h5f04ae72a6b83f12E+0x93c>
    6d1c:	8b160ec8 	add	x8, x22, x22, lsl #3
    6d20:	aa1403e0 	mov	x0, x20
    6d24:	52800102 	mov	w2, #0x8                   	// #8
    6d28:	d37df115 	lsl	x21, x8, #3
    6d2c:	aa1503e3 	mov	x3, x21
    6d30:	94000c51 	bl	9e74 <_RNvCsiGVaDesi5rv_7___rustc14___rust_realloc>
    6d34:	aa0003f4 	mov	x20, x0
    6d38:	b4001380 	cbz	x0, 6fa8 <_ZN4core4cell4once17OnceCell$LT$T$GT$8try_init17h5f04ae72a6b83f12E+0xb58>
    6d3c:	a974ebb7 	ldp	x23, x26, [x29, #-184]
    6d40:	f85403a8 	ldur	x8, [x29, #-192]
    6d44:	eb1a011f 	cmp	x8, x26
    6d48:	54000329 	b.ls	6dac <_ZN4core4cell4once17OnceCell$LT$T$GT$8try_init17h5f04ae72a6b83f12E+0x95c>  // b.plast
    6d4c:	8b080508 	add	x8, x8, x8, lsl #1
    6d50:	d37df118 	lsl	x24, x8, #3
    6d54:	b400031a 	cbz	x26, 6db4 <_ZN4core4cell4once17OnceCell$LT$T$GT$8try_init17h5f04ae72a6b83f12E+0x964>
    6d58:	8b1a0748 	add	x8, x26, x26, lsl #1
    6d5c:	aa1703e0 	mov	x0, x23
    6d60:	aa1803e1 	mov	x1, x24
    6d64:	52800102 	mov	w2, #0x8                   	// #8
    6d68:	d37df119 	lsl	x25, x8, #3
    6d6c:	aa1903e3 	mov	x3, x25
    6d70:	94000c41 	bl	9e74 <_RNvCsiGVaDesi5rv_7___rustc14___rust_realloc>
    6d74:	aa0003f5 	mov	x21, x0
    6d78:	b5000280 	cbnz	x0, 6dc8 <_ZN4core4cell4once17OnceCell$LT$T$GT$8try_init17h5f04ae72a6b83f12E+0x978>
    6d7c:	52800100 	mov	w0, #0x8                   	// #8
    6d80:	aa1903e1 	mov	x1, x25
    6d84:	9400093d 	bl	9278 <_ZN5alloc7raw_vec12handle_error17hbfb8377505525b80E>
    6d88:	1400008b 	b	6fb4 <_ZN4core4cell4once17OnceCell$LT$T$GT$8try_init17h5f04ae72a6b83f12E+0xb64>
    6d8c:	aa1403e0 	mov	x0, x20
    6d90:	52800102 	mov	w2, #0x8                   	// #8
    6d94:	94000c37 	bl	9e70 <_RNvCsiGVaDesi5rv_7___rustc14___rust_dealloc>
    6d98:	52800114 	mov	w20, #0x8                   	// #8
    6d9c:	a974ebb7 	ldp	x23, x26, [x29, #-184]
    6da0:	f85403a8 	ldur	x8, [x29, #-192]
    6da4:	eb1a011f 	cmp	x8, x26
    6da8:	54fffd28 	b.hi	6d4c <_ZN4core4cell4once17OnceCell$LT$T$GT$8try_init17h5f04ae72a6b83f12E+0x8fc>  // b.pmore
    6dac:	aa1703f5 	mov	x21, x23
    6db0:	14000006 	b	6dc8 <_ZN4core4cell4once17OnceCell$LT$T$GT$8try_init17h5f04ae72a6b83f12E+0x978>
    6db4:	aa1703e0 	mov	x0, x23
    6db8:	aa1803e1 	mov	x1, x24
    6dbc:	52800102 	mov	w2, #0x8                   	// #8
    6dc0:	52800115 	mov	w21, #0x8                   	// #8
    6dc4:	94000c2b 	bl	9e70 <_RNvCsiGVaDesi5rv_7___rustc14___rust_dealloc>
    6dc8:	d350fed9 	lsr	x25, x22, #16
    6dcc:	d348fed8 	lsr	x24, x22, #8
    6dd0:	12001ed7 	and	w23, w22, #0xff
    6dd4:	d370bf28 	lsl	x8, x25, #16
    6dd8:	b9400269 	ldr	w9, [x19]
    6ddc:	2a1703ea 	mov	w10, w23
    6de0:	b3781f08 	bfi	x8, x24, #8, #8
    6de4:	7100053f 	cmp	w9, #0x1
    6de8:	aa0a0108 	orr	x8, x8, x10
    6dec:	54000bc0 	b.eq	6f64 <_ZN4core4cell4once17OnceCell$LT$T$GT$8try_init17h5f04ae72a6b83f12E+0xb14>  // b.none
    6df0:	52800029 	mov	w9, #0x1                   	// #1
    6df4:	aa1303e0 	mov	x0, x19
    6df8:	a9015668 	stp	x8, x21, [x19, #16]
    6dfc:	f9000269 	str	x9, [x19]
    6e00:	f8008c14 	str	x20, [x0, #8]!
    6e04:	f900127a 	str	x26, [x19, #32]
    6e08:	9106c3ff 	add	sp, sp, #0x1b0
    6e0c:	a9454ff4 	ldp	x20, x19, [sp, #80]
    6e10:	a94457f6 	ldp	x22, x21, [sp, #64]
    6e14:	a9435ff8 	ldp	x24, x23, [sp, #48]
    6e18:	a94267fa 	ldp	x26, x25, [sp, #32]
    6e1c:	a9416ffc 	ldp	x28, x27, [sp, #16]
    6e20:	a8c67bfd 	ldp	x29, x30, [sp], #96
    6e24:	d65f03c0 	ret
    6e28:	f94043f5 	ldr	x21, [sp, #128]
    6e2c:	52800277 	mov	w23, #0x13                  	// #19
    6e30:	aa1f03f9 	mov	x25, xzr
    6e34:	17ffff80 	b	6c34 <_ZN4core4cell4once17OnceCell$LT$T$GT$8try_init17h5f04ae72a6b83f12E+0x7e4>
    6e38:	f94063f5 	ldr	x21, [sp, #192]
    6e3c:	52800277 	mov	w23, #0x13                  	// #19
    6e40:	aa1f03f9 	mov	x25, xzr
    6e44:	17ffff7c 	b	6c34 <_ZN4core4cell4once17OnceCell$LT$T$GT$8try_init17h5f04ae72a6b83f12E+0x7e4>
    6e48:	2a1f03f8 	mov	w24, wzr
    6e4c:	52800277 	mov	w23, #0x13                  	// #19
    6e50:	aa0803f5 	mov	x21, x8
    6e54:	aa1f03f9 	mov	x25, xzr
    6e58:	17ffff77 	b	6c34 <_ZN4core4cell4once17OnceCell$LT$T$GT$8try_init17h5f04ae72a6b83f12E+0x7e4>
    6e5c:	385873a8 	ldurb	w8, [x29, #-121]
    6e60:	785853a9 	ldurh	w9, [x29, #-123]
    6e64:	b85813b8 	ldur	w24, [x29, #-127]
    6e68:	f85883b5 	ldur	x21, [x29, #-120]
    6e6c:	2a084128 	orr	w8, w9, w8, lsl #16
    6e70:	aa088308 	orr	x8, x24, x8, lsl #32
    6e74:	d348fd19 	lsr	x25, x8, #8
    6e78:	17ffff6f 	b	6c34 <_ZN4core4cell4once17OnceCell$LT$T$GT$8try_init17h5f04ae72a6b83f12E+0x7e4>
    6e7c:	f94013f5 	ldr	x21, [sp, #32]
    6e80:	14000004 	b	6e90 <_ZN4core4cell4once17OnceCell$LT$T$GT$8try_init17h5f04ae72a6b83f12E+0xa40>
    6e84:	f94053f5 	ldr	x21, [sp, #160]
    6e88:	14000002 	b	6e90 <_ZN4core4cell4once17OnceCell$LT$T$GT$8try_init17h5f04ae72a6b83f12E+0xa40>
    6e8c:	aa0803f5 	mov	x21, x8
    6e90:	aa1f03f9 	mov	x25, xzr
    6e94:	2a1f03f8 	mov	w24, wzr
    6e98:	17ffff66 	b	6c30 <_ZN4core4cell4once17OnceCell$LT$T$GT$8try_init17h5f04ae72a6b83f12E+0x7e0>
    6e9c:	f9400ff5 	ldr	x21, [sp, #24]
    6ea0:	52800337 	mov	w23, #0x19                  	// #25
    6ea4:	aa1f03f9 	mov	x25, xzr
    6ea8:	17ffff63 	b	6c34 <_ZN4core4cell4once17OnceCell$LT$T$GT$8try_init17h5f04ae72a6b83f12E+0x7e4>
    6eac:	f94007f5 	ldr	x21, [sp, #8]
    6eb0:	52800337 	mov	w23, #0x19                  	// #25
    6eb4:	aa1f03f9 	mov	x25, xzr
    6eb8:	17ffff5f 	b	6c34 <_ZN4core4cell4once17OnceCell$LT$T$GT$8try_init17h5f04ae72a6b83f12E+0x7e4>
    6ebc:	d348ff58 	lsr	x24, x26, #8
    6ec0:	d350ff59 	lsr	x25, x26, #16
    6ec4:	17ffff5c 	b	6c34 <_ZN4core4cell4once17OnceCell$LT$T$GT$8try_init17h5f04ae72a6b83f12E+0x7e4>
    6ec8:	f85483a0 	ldur	x0, [x29, #-184]
    6ecc:	f100575f 	cmp	x26, #0x15
    6ed0:	54000742 	b.cs	6fb8 <_ZN4core4cell4once17OnceCell$LT$T$GT$8try_init17h5f04ae72a6b83f12E+0xb68>  // b.hs, b.nlast
    6ed4:	52800309 	mov	w9, #0x18                  	// #24
    6ed8:	aa1f03e8 	mov	x8, xzr
    6edc:	9100600c 	add	x12, x0, #0x18
    6ee0:	9b090349 	madd	x9, x26, x9, x0
    6ee4:	aa0003ed 	mov	x13, x0
    6ee8:	1400000a 	b	6f10 <_ZN4core4cell4once17OnceCell$LT$T$GT$8try_init17h5f04ae72a6b83f12E+0xac0>
    6eec:	aa0003ec 	mov	x12, x0
    6ef0:	f900018b 	str	x11, [x12]
    6ef4:	3cd803a0 	ldur	q0, [x29, #-128]
    6ef8:	3c808180 	stur	q0, [x12, #8]
    6efc:	9100614c 	add	x12, x10, #0x18
    6f00:	91006108 	add	x8, x8, #0x18
    6f04:	aa0a03ed 	mov	x13, x10
    6f08:	eb09019f 	cmp	x12, x9
    6f0c:	54ffefa0 	b.eq	6d00 <_ZN4core4cell4once17OnceCell$LT$T$GT$8try_init17h5f04ae72a6b83f12E+0x8b0>  // b.none
    6f10:	f9400dab 	ldr	x11, [x13, #24]
    6f14:	f94001aa 	ldr	x10, [x13]
    6f18:	eb0a017f 	cmp	x11, x10
    6f1c:	aa0c03ea 	mov	x10, x12
    6f20:	54fffee2 	b.cs	6efc <_ZN4core4cell4once17OnceCell$LT$T$GT$8try_init17h5f04ae72a6b83f12E+0xaac>  // b.hs, b.nlast
    6f24:	3dc009a0 	ldr	q0, [x13, #32]
    6f28:	aa0803ec 	mov	x12, x8
    6f2c:	3c9803a0 	stur	q0, [x29, #-128]
    6f30:	8b0c000d 	add	x13, x0, x12
    6f34:	3dc001a0 	ldr	q0, [x13]
    6f38:	f94009ae 	ldr	x14, [x13, #16]
    6f3c:	3c8181a0 	stur	q0, [x13, #24]
    6f40:	f90015ae 	str	x14, [x13, #40]
    6f44:	b4fffd4c 	cbz	x12, 6eec <_ZN4core4cell4once17OnceCell$LT$T$GT$8try_init17h5f04ae72a6b83f12E+0xa9c>
    6f48:	f85e81ad 	ldur	x13, [x13, #-24]
    6f4c:	d100618c 	sub	x12, x12, #0x18
    6f50:	eb0d017f 	cmp	x11, x13
    6f54:	54fffee3 	b.cc	6f30 <_ZN4core4cell4once17OnceCell$LT$T$GT$8try_init17h5f04ae72a6b83f12E+0xae0>  // b.lo, b.ul, b.last
    6f58:	8b0c000c 	add	x12, x0, x12
    6f5c:	9100618c 	add	x12, x12, #0x18
    6f60:	17ffffe4 	b	6ef0 <_ZN4core4cell4once17OnceCell$LT$T$GT$8try_init17h5f04ae72a6b83f12E+0xaa0>
    6f64:	91002269 	add	x9, x19, #0x8
    6f68:	d10203a0 	sub	x0, x29, #0x80
    6f6c:	a93957a8 	stp	x8, x21, [x29, #-112]
    6f70:	a93853a9 	stp	x9, x20, [x29, #-128]
    6f74:	f81a03ba 	stur	x26, [x29, #-96]
    6f78:	94004f20 	bl	1abf8 <_ZN4core3ptr560drop_in_place$LT$core..result..Result$LT$$RF$core..result..Result$LT$addr2line..function..Functions$LT$gimli..read..endian_slice..EndianSlice$LT$gimli..endianity..LittleEndian$GT$$GT$$C$gimli..read..Error$GT$$C$$LP$$RF$core..result..Result$LT$addr2line..function..Functions$LT$gimli..read..endian_slice..EndianSlice$LT$gimli..endianity..LittleEndian$GT$$GT$$C$gimli..read..Error$GT$$C$core..result..Result$LT$addr2line..function..Functions$LT$gimli..read..endian_slice..EndianSlice$LT$gimli..endianity..LittleEndian$GT$$GT$$C$gimli..read..Error$GT$$RP$$GT$$GT$17hace6b54b425e8c17E>
    6f7c:	900002e8 	adrp	x8, 62000 <GCC_except_table0+0x108dc>
    6f80:	913dc108 	add	x8, x8, #0xf70
    6f84:	52800029 	mov	w9, #0x1                   	// #1
    6f88:	a93827a8 	stp	x8, x9, [x29, #-128]
    6f8c:	52800108 	mov	w8, #0x8                   	// #8
    6f90:	900002e1 	adrp	x1, 62000 <GCC_except_table0+0x108dc>
    6f94:	913e0021 	add	x1, x1, #0xf80
    6f98:	d10203a0 	sub	x0, x29, #0x80
    6f9c:	a939ffbf 	stp	xzr, xzr, [x29, #-104]
    6fa0:	f81903a8 	stur	x8, [x29, #-112]
    6fa4:	94000a82 	bl	99ac <_ZN4core9panicking9panic_fmt17ha1b8843c59fc39d4E>
    6fa8:	52800100 	mov	w0, #0x8                   	// #8
    6fac:	aa1503e1 	mov	x1, x21
    6fb0:	940008b2 	bl	9278 <_ZN5alloc7raw_vec12handle_error17hbfb8377505525b80E>
    6fb4:	d4200020 	brk	#0x1
    6fb8:	d100c3a2 	sub	x2, x29, #0x30
    6fbc:	aa1a03e1 	mov	x1, x26
    6fc0:	94005566 	bl	1c558 <_ZN4core5slice4sort6stable14driftsort_main17h52830e6a421b8da1E>
    6fc4:	17ffff4f 	b	6d00 <_ZN4core4cell4once17OnceCell$LT$T$GT$8try_init17h5f04ae72a6b83f12E+0x8b0>
    6fc8:	14000015 	b	701c <_ZN4core4cell4once17OnceCell$LT$T$GT$8try_init17h5f04ae72a6b83f12E+0xbcc>
    6fcc:	aa0003f3 	mov	x19, x0
    6fd0:	d10203a0 	sub	x0, x29, #0x80
    6fd4:	94004c2d 	bl	1a088 <_ZN4core3ptr138drop_in_place$LT$addr2line..function..LazyFunction$LT$gimli..read..endian_slice..EndianSlice$LT$gimli..endianity..LittleEndian$GT$$GT$$GT$17h854a4b34edf536acE>
    6fd8:	14000012 	b	7020 <_ZN4core4cell4once17OnceCell$LT$T$GT$8try_init17h5f04ae72a6b83f12E+0xbd0>
    6fdc:	14000010 	b	701c <_ZN4core4cell4once17OnceCell$LT$T$GT$8try_init17h5f04ae72a6b83f12E+0xbcc>
    6fe0:	aa0003f3 	mov	x19, x0
    6fe4:	aa1703e0 	mov	x0, x23
    6fe8:	aa1803e1 	mov	x1, x24
    6fec:	52800102 	mov	w2, #0x8                   	// #8
    6ff0:	94000ba0 	bl	9e70 <_RNvCsiGVaDesi5rv_7___rustc14___rust_dealloc>
    6ff4:	aa1403e0 	mov	x0, x20
    6ff8:	aa1603e1 	mov	x1, x22
    6ffc:	94004d0c 	bl	1a42c <_ZN4core3ptr173drop_in_place$LT$alloc..boxed..Box$LT$$u5b$addr2line..function..LazyFunction$LT$gimli..read..endian_slice..EndianSlice$LT$gimli..endianity..LittleEndian$GT$$GT$$u5d$$GT$$GT$17h0cd8035266b993abE>
    7000:	aa1303e0 	mov	x0, x19
    7004:	97fff84b 	bl	5130 <_Unwind_Resume@plt>
    7008:	aa0003f3 	mov	x19, x0
    700c:	910363e0 	add	x0, sp, #0xd8
    7010:	94004cbc 	bl	1a300 <_ZN4core3ptr161drop_in_place$LT$alloc..vec..Vec$LT$addr2line..function..LazyFunction$LT$gimli..read..endian_slice..EndianSlice$LT$gimli..endianity..LittleEndian$GT$$GT$$GT$$GT$17h14b29172e95fdc61E>
    7014:	2a1f03f4 	mov	w20, wzr
    7018:	14000003 	b	7024 <_ZN4core4cell4once17OnceCell$LT$T$GT$8try_init17h5f04ae72a6b83f12E+0xbd4>
    701c:	aa0003f3 	mov	x19, x0
    7020:	52800034 	mov	w20, #0x1                   	// #1
    7024:	f85403a8 	ldur	x8, [x29, #-192]
    7028:	b40000c8 	cbz	x8, 7040 <_ZN4core4cell4once17OnceCell$LT$T$GT$8try_init17h5f04ae72a6b83f12E+0xbf0>
    702c:	8b080508 	add	x8, x8, x8, lsl #1
    7030:	f85483a0 	ldur	x0, [x29, #-184]
    7034:	52800102 	mov	w2, #0x8                   	// #8
    7038:	d37df101 	lsl	x1, x8, #3
    703c:	94000b8d 	bl	9e70 <_RNvCsiGVaDesi5rv_7___rustc14___rust_dealloc>
    7040:	3607fe14 	tbz	w20, #0, 7000 <_ZN4core4cell4once17OnceCell$LT$T$GT$8try_init17h5f04ae72a6b83f12E+0xbb0>
    7044:	910363e0 	add	x0, sp, #0xd8
    7048:	94004cae 	bl	1a300 <_ZN4core3ptr161drop_in_place$LT$alloc..vec..Vec$LT$addr2line..function..LazyFunction$LT$gimli..read..endian_slice..EndianSlice$LT$gimli..endianity..LittleEndian$GT$$GT$$GT$$GT$17h14b29172e95fdc61E>
    704c:	aa1303e0 	mov	x0, x19
    7050:	97fff838 	bl	5130 <_Unwind_Resume@plt>

0000000000007054 <_ZN4core4cell4once17OnceCell$LT$T$GT$8try_init17h6577ec651d954e20E>:
    7054:	a9ba7bfd 	stp	x29, x30, [sp, #-96]!
    7058:	a9016ffc 	stp	x28, x27, [sp, #16]
    705c:	a90267fa 	stp	x26, x25, [sp, #32]
    7060:	a9035ff8 	stp	x24, x23, [sp, #48]
    7064:	a90457f6 	stp	x22, x21, [sp, #64]
    7068:	a9054ff4 	stp	x20, x19, [sp, #80]
    706c:	910003fd 	mov	x29, sp
    7070:	d109c3ff 	sub	sp, sp, #0x270
    7074:	f9403474 	ldr	x20, [x3, #104]
    7078:	aa1f03fa 	mov	x26, xzr
    707c:	d37efe88 	lsr	x8, x20, #62
    7080:	d37ef698 	lsl	x24, x20, #2
    7084:	b5000388 	cbnz	x8, 70f4 <_ZN4core4cell4once17OnceCell$LT$T$GT$8try_init17h6577ec651d954e20E+0xa0>
    7088:	b27ff7e8 	mov	x8, #0x7ffffffffffffffe    	// #9223372036854775806
    708c:	f9004be1 	str	x1, [sp, #144]
    7090:	eb08031f 	cmp	x24, x8
    7094:	54000308 	b.hi	70f4 <_ZN4core4cell4once17OnceCell$LT$T$GT$8try_init17h6577ec651d954e20E+0xa0>  // b.pmore
    7098:	a94dac6a 	ldp	x10, x11, [x3, #216]
    709c:	aa0303f7 	mov	x23, x3
    70a0:	a94bb86d 	ldp	x13, x14, [x3, #184]
    70a4:	aa0203fc 	mov	x28, x2
    70a8:	b9410069 	ldr	w9, [x3, #256]
    70ac:	f940746c 	ldr	x12, [x3, #232]
    70b0:	aa0003fb 	mov	x27, x0
    70b4:	39442468 	ldrb	w8, [x3, #265]
    70b8:	f9403079 	ldr	x25, [x3, #96]
    70bc:	a906abeb 	stp	x11, x10, [sp, #104]
    70c0:	b9007be9 	str	w9, [sp, #120]
    70c4:	b90083e8 	str	w8, [sp, #128]
    70c8:	a905b3ed 	stp	x13, x12, [sp, #88]
    70cc:	f9002bee 	str	x14, [sp, #80]
    70d0:	b4000198 	cbz	x24, 7100 <_ZN4core4cell4once17OnceCell$LT$T$GT$8try_init17h6577ec651d954e20E+0xac>
    70d4:	94000b6c 	bl	9e84 <_RNvCsiGVaDesi5rv_7___rustc35___rust_no_alloc_shim_is_unstable_v2>
    70d8:	aa1803e0 	mov	x0, x24
    70dc:	52800041 	mov	w1, #0x2                   	// #2
    70e0:	5280005a 	mov	w26, #0x2                   	// #2
    70e4:	94000b62 	bl	9e6c <_RNvCsiGVaDesi5rv_7___rustc12___rust_alloc>
    70e8:	aa0003f6 	mov	x22, x0
    70ec:	aa1403f5 	mov	x21, x20
    70f0:	b50000c0 	cbnz	x0, 7108 <_ZN4core4cell4once17OnceCell$LT$T$GT$8try_init17h6577ec651d954e20E+0xb4>
    70f4:	aa1a03e0 	mov	x0, x26
    70f8:	aa1803e1 	mov	x1, x24
    70fc:	9400085f 	bl	9278 <_ZN5alloc7raw_vec12handle_error17hbfb8377505525b80E>
    7100:	aa1f03f5 	mov	x21, xzr
    7104:	52800056 	mov	w22, #0x2                   	// #2
    7108:	aa1603e0 	mov	x0, x22
    710c:	aa1903e1 	mov	x1, x25
    7110:	aa1803e2 	mov	x2, x24
    7114:	97fff703 	bl	4d20 <memcpy@plt>
    7118:	f94042f3 	ldr	x19, [x23, #128]
    711c:	b200f3e9 	mov	x9, #0x5555555555555555    	// #6148914691236517205
    7120:	f28aaac9 	movk	x9, #0x5556
    7124:	8b130668 	add	x8, x19, x19, lsl #1
    7128:	f2e0aaa9 	movk	x9, #0x555, lsl #48
    712c:	d1000529 	sub	x9, x9, #0x1
    7130:	d37df119 	lsl	x25, x8, #3
    7134:	eb09027f 	cmp	x19, x9
    7138:	540000c9 	b.ls	7150 <_ZN4core4cell4once17OnceCell$LT$T$GT$8try_init17h6577ec651d954e20E+0xfc>  // b.plast
    713c:	aa1f03fb 	mov	x27, xzr
    7140:	aa1b03e0 	mov	x0, x27
    7144:	aa1903e1 	mov	x1, x25
    7148:	9400084c 	bl	9278 <_ZN5alloc7raw_vec12handle_error17hbfb8377505525b80E>
    714c:	140005ec 	b	88fc <_ZN4core4cell4once17OnceCell$LT$T$GT$8try_init17h6577ec651d954e20E+0x18a8>
    7150:	f9403efa 	ldr	x26, [x23, #120]
    7154:	a903effc 	stp	x28, x27, [sp, #56]
    7158:	b4000159 	cbz	x25, 7180 <_ZN4core4cell4once17OnceCell$LT$T$GT$8try_init17h6577ec651d954e20E+0x12c>
    715c:	94000b4a 	bl	9e84 <_RNvCsiGVaDesi5rv_7___rustc35___rust_no_alloc_shim_is_unstable_v2>
    7160:	aa1903e0 	mov	x0, x25
    7164:	52800101 	mov	w1, #0x8                   	// #8
    7168:	5280011b 	mov	w27, #0x8                   	// #8
    716c:	94000b40 	bl	9e6c <_RNvCsiGVaDesi5rv_7___rustc12___rust_alloc>
    7170:	aa0003f8 	mov	x24, x0
    7174:	f90027f3 	str	x19, [sp, #72]
    7178:	b5000080 	cbnz	x0, 7188 <_ZN4core4cell4once17OnceCell$LT$T$GT$8try_init17h6577ec651d954e20E+0x134>
    717c:	17fffff1 	b	7140 <_ZN4core4cell4once17OnceCell$LT$T$GT$8try_init17h6577ec651d954e20E+0xec>
    7180:	52800118 	mov	w24, #0x8                   	// #8
    7184:	f90027ff 	str	xzr, [sp, #72]
    7188:	aa1803e0 	mov	x0, x24
    718c:	aa1a03e1 	mov	x1, x26
    7190:	aa1903e2 	mov	x2, x25
    7194:	97fff6e3 	bl	4d20 <memcpy@plt>
    7198:	f9404ef9 	ldr	x25, [x23, #152]
    719c:	aa1f03fc 	mov	x28, xzr
    71a0:	d37eff28 	lsr	x8, x25, #62
    71a4:	d37ef73a 	lsl	x26, x25, #2
    71a8:	b50001a8 	cbnz	x8, 71dc <_ZN4core4cell4once17OnceCell$LT$T$GT$8try_init17h6577ec651d954e20E+0x188>
    71ac:	b27ff7e8 	mov	x8, #0x7ffffffffffffffe    	// #9223372036854775806
    71b0:	eb08035f 	cmp	x26, x8
    71b4:	54000148 	b.hi	71dc <_ZN4core4cell4once17OnceCell$LT$T$GT$8try_init17h6577ec651d954e20E+0x188>  // b.pmore
    71b8:	f9404afb 	ldr	x27, [x23, #144]
    71bc:	b400019a 	cbz	x26, 71ec <_ZN4core4cell4once17OnceCell$LT$T$GT$8try_init17h6577ec651d954e20E+0x198>
    71c0:	94000b31 	bl	9e84 <_RNvCsiGVaDesi5rv_7___rustc35___rust_no_alloc_shim_is_unstable_v2>
    71c4:	aa1a03e0 	mov	x0, x26
    71c8:	52800041 	mov	w1, #0x2                   	// #2
    71cc:	5280005c 	mov	w28, #0x2                   	// #2
    71d0:	94000b27 	bl	9e6c <_RNvCsiGVaDesi5rv_7___rustc12___rust_alloc>
    71d4:	f9001bf9 	str	x25, [sp, #48]
    71d8:	b50000e0 	cbnz	x0, 71f4 <_ZN4core4cell4once17OnceCell$LT$T$GT$8try_init17h6577ec651d954e20E+0x1a0>
    71dc:	aa1c03e0 	mov	x0, x28
    71e0:	aa1a03e1 	mov	x1, x26
    71e4:	94000825 	bl	9278 <_ZN5alloc7raw_vec12handle_error17hbfb8377505525b80E>
    71e8:	140005c5 	b	88fc <_ZN4core4cell4once17OnceCell$LT$T$GT$8try_init17h6577ec651d954e20E+0x18a8>
    71ec:	52800040 	mov	w0, #0x2                   	// #2
    71f0:	f9001bff 	str	xzr, [sp, #48]
    71f4:	aa1b03e1 	mov	x1, x27
    71f8:	aa1a03e2 	mov	x2, x26
    71fc:	f90017e0 	str	x0, [sp, #40]
    7200:	97fff6c8 	bl	4d20 <memcpy@plt>
    7204:	f9405ae9 	ldr	x9, [x23, #176]
    7208:	52800b08 	mov	w8, #0x58                  	// #88
    720c:	9b087d3b 	mul	x27, x9, x8
    7210:	d28e8ba8 	mov	x8, #0x745d                	// #29789
    7214:	f2a8ba28 	movk	x8, #0x45d1, lsl #16
    7218:	f2cba2e8 	movk	x8, #0x5d17, lsl #32
    721c:	f2e02e88 	movk	x8, #0x174, lsl #48
    7220:	eb08013f 	cmp	x9, x8
    7224:	540000c9 	b.ls	723c <_ZN4core4cell4once17OnceCell$LT$T$GT$8try_init17h6577ec651d954e20E+0x1e8>  // b.plast
    7228:	aa1f03fa 	mov	x26, xzr
    722c:	aa1a03e0 	mov	x0, x26
    7230:	aa1b03e1 	mov	x1, x27
    7234:	94000811 	bl	9278 <_ZN5alloc7raw_vec12handle_error17hbfb8377505525b80E>
    7238:	140005b1 	b	88fc <_ZN4core4cell4once17OnceCell$LT$T$GT$8try_init17h6577ec651d954e20E+0x18a8>
    723c:	f94056fc 	ldr	x28, [x23, #168]
    7240:	f90013e9 	str	x9, [sp, #32]
    7244:	b400015b 	cbz	x27, 726c <_ZN4core4cell4once17OnceCell$LT$T$GT$8try_init17h6577ec651d954e20E+0x218>
    7248:	94000b0f 	bl	9e84 <_RNvCsiGVaDesi5rv_7___rustc35___rust_no_alloc_shim_is_unstable_v2>
    724c:	aa1b03e0 	mov	x0, x27
    7250:	52800101 	mov	w1, #0x8                   	// #8
    7254:	5280011a 	mov	w26, #0x8                   	// #8
    7258:	94000b05 	bl	9e6c <_RNvCsiGVaDesi5rv_7___rustc12___rust_alloc>
    725c:	f94013e8 	ldr	x8, [sp, #32]
    7260:	f9000fe8 	str	x8, [sp, #24]
    7264:	b5000080 	cbnz	x0, 7274 <_ZN4core4cell4once17OnceCell$LT$T$GT$8try_init17h6577ec651d954e20E+0x220>
    7268:	17fffff1 	b	722c <_ZN4core4cell4once17OnceCell$LT$T$GT$8try_init17h6577ec651d954e20E+0x1d8>
    726c:	52800100 	mov	w0, #0x8                   	// #8
    7270:	f9000fff 	str	xzr, [sp, #24]
    7274:	910323e8 	add	x8, sp, #0xc8
    7278:	aa1c03e1 	mov	x1, x28
    727c:	aa1b03e2 	mov	x2, x27
    7280:	9104151a 	add	x26, x8, #0x105
    7284:	f9000be0 	str	x0, [sp, #16]
    7288:	97fff6a6 	bl	4d20 <memcpy@plt>
    728c:	f94002ec 	ldr	x12, [x23]
    7290:	a94ca2e9 	ldp	x9, x8, [x23, #200]
    7294:	a94f2aeb 	ldp	x11, x10, [x23, #240]
    7298:	f100b99f 	cmp	x12, #0x2e
    729c:	54000061 	b.ne	72a8 <_ZN4core4cell4once17OnceCell$LT$T$GT$8try_init17h6577ec651d954e20E+0x254>  // b.any
    72a0:	d100c3bb 	sub	x27, x29, #0x30
    72a4:	14000034 	b	7374 <_ZN4core4cell4once17OnceCell$LT$T$GT$8try_init17h6577ec651d954e20E+0x320>
    72a8:	d00001cd 	adrp	x13, 41000 <__aarch64_cas1_relax>
    72ac:	9131b9ad 	add	x13, x13, #0xc6e
    72b0:	d100c3bb 	sub	x27, x29, #0x30
    72b4:	1000008e 	adr	x14, 72c4 <_ZN4core4cell4once17OnceCell$LT$T$GT$8try_init17h6577ec651d954e20E+0x270>
    72b8:	786c79af 	ldrh	w15, [x13, x12, lsl #1]
    72bc:	8b0f09ce 	add	x14, x14, x15, lsl #2
    72c0:	d61f01c0 	br	x14
    72c4:	f94006ef 	ldr	x15, [x23, #8]
    72c8:	d348fdee 	lsr	x14, x15, #8
    72cc:	d350fdf0 	lsr	x16, x15, #16
    72d0:	92607ded 	and	x13, x15, #0xffffffff00000000
    72d4:	f9400ef2 	ldr	x18, [x23, #24]
    72d8:	3dc00ee0 	ldr	q0, [x23, #48]
    72dc:	f94022e0 	ldr	x0, [x23, #64]
    72e0:	f100ba5f 	cmp	x18, #0x2e
    72e4:	540003c0 	b.eq	735c <_ZN4core4cell4once17OnceCell$LT$T$GT$8try_init17h6577ec651d954e20E+0x308>  // b.none
    72e8:	1400000a 	b	7310 <_ZN4core4cell4once17OnceCell$LT$T$GT$8try_init17h6577ec651d954e20E+0x2bc>
    72ec:	394022ef 	ldrb	w15, [x23, #8]
    72f0:	2a1f03ee 	mov	w14, wzr
    72f4:	2a1f03f0 	mov	w16, wzr
    72f8:	aa1f03ed 	mov	x13, xzr
    72fc:	f9400ef2 	ldr	x18, [x23, #24]
    7300:	3dc00ee0 	ldr	q0, [x23, #48]
    7304:	f94022e0 	ldr	x0, [x23, #64]
    7308:	f100ba5f 	cmp	x18, #0x2e
    730c:	54000280 	b.eq	735c <_ZN4core4cell4once17OnceCell$LT$T$GT$8try_init17h6577ec651d954e20E+0x308>  // b.none
    7310:	d00001c1 	adrp	x1, 41000 <__aarch64_cas1_relax>
    7314:	91332821 	add	x1, x1, #0xcca
    7318:	10000082 	adr	x2, 7328 <_ZN4core4cell4once17OnceCell$LT$T$GT$8try_init17h6577ec651d954e20E+0x2d4>
    731c:	78727823 	ldrh	w3, [x1, x18, lsl #1]
    7320:	8b030842 	add	x2, x2, x3, lsl #2
    7324:	d61f0040 	br	x2
    7328:	f94012e3 	ldr	x3, [x23, #32]
    732c:	d348fc62 	lsr	x2, x3, #8
    7330:	d350fc64 	lsr	x4, x3, #16
    7334:	92607c61 	and	x1, x3, #0xffffffff00000000
    7338:	14000005 	b	734c <_ZN4core4cell4once17OnceCell$LT$T$GT$8try_init17h6577ec651d954e20E+0x2f8>
    733c:	394082e3 	ldrb	w3, [x23, #32]
    7340:	2a1f03e2 	mov	w2, wzr
    7344:	2a1f03e4 	mov	w4, wzr
    7348:	aa1f03e1 	mov	x1, xzr
    734c:	12001c63 	and	w3, w3, #0xff
    7350:	33181c43 	bfi	w3, w2, #8, #8
    7354:	2a044062 	orr	w2, w3, w4, lsl #16
    7358:	aa020021 	orr	x1, x1, x2
    735c:	12001def 	and	w15, w15, #0xff
    7360:	3cc482e1 	ldur	q1, [x23, #72]
    7364:	33181dcf 	bfi	w15, w14, #8, #8
    7368:	3d800361 	str	q1, [x27]
    736c:	2a1041ee 	orr	w14, w15, w16, lsl #16
    7370:	aa0e01ae 	orr	x14, x13, x14
    7374:	3dc00361 	ldr	q1, [x27]
    7378:	a90cbbec 	stp	x12, x14, [sp, #200]
    737c:	910047ec 	add	x12, sp, #0x11
    7380:	f900e3ea 	str	x10, [sp, #448]
    7384:	5280011c 	mov	w28, #0x8                   	// #8
    7388:	3c8ff181 	stur	q1, [x12, #255]
    738c:	f94027ec 	ldr	x12, [sp, #72]
    7390:	3c8f83e0 	stur	q0, [sp, #248]
    7394:	a91333f4 	stp	x20, x12, [sp, #304]
    7398:	a942bbec 	ldp	x12, x14, [sp, #40]
    739c:	52800034 	mov	w20, #0x1                   	// #1
    73a0:	f90087e0 	str	x0, [sp, #264]
    73a4:	4e080e80 	dup	v0.2d, x20
    73a8:	a9125bf5 	stp	x21, x22, [sp, #288]
    73ac:	d00001d5 	adrp	x21, 41000 <__aarch64_cas1_relax>
    73b0:	91349ab5 	add	x21, x21, #0xd26
    73b4:	a91533ee 	stp	x14, x12, [sp, #336]
    73b8:	f94013ec 	ldr	x12, [sp, #32]
    73bc:	a9413bef 	ldp	x15, x14, [sp, #16]
    73c0:	a9144ff8 	stp	x24, x19, [sp, #320]
    73c4:	a91923e9 	stp	x9, x8, [sp, #400]
    73c8:	92800018 	mov	x24, #0xffffffffffffffff    	// #-1
    73cc:	f9010fe9 	str	x9, [sp, #536]
    73d0:	900002e9 	adrp	x9, 63000 <__do_global_dtors_aux_fini_array_entry+0xe88>
    73d4:	910bc129 	add	x9, x9, #0x2f0
    73d8:	a9163bf9 	stp	x25, x14, [sp, #352]
    73dc:	52800339 	mov	w25, #0x19                  	// #25
    73e0:	a91733ef 	stp	x15, x12, [sp, #368]
    73e4:	a9453bec 	ldp	x12, x14, [sp, #80]
    73e8:	f90007ff 	str	xzr, [sp, #8]
    73ec:	a909f3ff 	stp	xzr, x28, [sp, #152]
    73f0:	a91833ee 	stp	x14, x12, [sp, #384]
    73f4:	a946bbec 	ldp	x12, x14, [sp, #104]
    73f8:	a90affff 	stp	xzr, xzr, [sp, #168]
    73fc:	a90bfffc 	stp	x28, xzr, [sp, #184]
    7400:	a91a33ee 	stp	x14, x12, [sp, #416]
    7404:	f94033ec 	ldr	x12, [sp, #96]
    7408:	a90dcbf1 	stp	x17, x18, [sp, #216]
    740c:	a91b2fec 	stp	x12, x11, [sp, #432]
    7410:	910416ec 	add	x12, x23, #0x105
    7414:	394412eb 	ldrb	w11, [x23, #260]
    7418:	b940018a 	ldr	w10, [x12]
    741c:	b9407bec 	ldr	w12, [sp, #120]
    7420:	910323f7 	add	x23, sp, #0xc8
    7424:	a90e97e1 	stp	x1, x5, [sp, #232]
    7428:	b900034a 	str	w10, [x26]
    742c:	b94083ea 	ldr	w10, [sp, #128]
    7430:	b901cbec 	str	w12, [sp, #456]
    7434:	390747ea 	strb	w10, [sp, #465]
    7438:	9103a7ea 	add	x10, sp, #0xe9
    743c:	3c8ff140 	stur	q0, [x10, #255]
    7440:	d00001ca 	adrp	x10, 41000 <__aarch64_cas1_relax>
    7444:	3dc2a540 	ldr	q0, [x10, #2704]
    7448:	390733eb 	strb	w11, [sp, #460]
    744c:	a91dffff 	stp	xzr, xzr, [sp, #472]
    7450:	f90107ff 	str	xzr, [sp, #520]
    7454:	a91fffff 	stp	xzr, xzr, [sp, #504]
    7458:	390843ff 	strb	wzr, [sp, #528]
    745c:	390847eb 	strb	w11, [sp, #529]
    7460:	3d8023e0 	str	q0, [sp, #128]
    7464:	b804535f 	stur	wzr, [x26, #69]
    7468:	f9003fe9 	str	x9, [sp, #120]
    746c:	f90113e8 	str	x8, [sp, #544]
    7470:	3600015f 	tbz	wzr, #0, 7498 <_ZN4core4cell4once17OnceCell$LT$T$GT$8try_init17h6577ec651d954e20E+0x444>
    7474:	4e080e80 	dup	v0.2d, x20
    7478:	9103a7e8 	add	x8, sp, #0xe9
    747c:	a9117eff 	stp	xzr, xzr, [x23, #272]
    7480:	390843ff 	strb	wzr, [sp, #528]
    7484:	a9137eff 	stp	xzr, xzr, [x23, #304]
    7488:	3c8ff100 	stur	q0, [x8, #255]
    748c:	394733e8 	ldrb	w8, [sp, #460]
    7490:	39084fff 	strb	wzr, [sp, #531]
    7494:	390847e8 	strb	w8, [sp, #529]
    7498:	f94113ec 	ldr	x12, [sp, #544]
    749c:	f90107ff 	str	xzr, [sp, #520]
    74a0:	39084bff 	strb	wzr, [sp, #530]
    74a4:	79042bff 	strh	wzr, [sp, #532]
    74a8:	b4006e6c 	cbz	x12, 8274 <_ZN4core4cell4once17OnceCell$LT$T$GT$8try_init17h6577ec651d954e20E+0x1220>
    74ac:	aa1f03ea 	mov	x10, xzr
    74b0:	f9410ff3 	ldr	x19, [sp, #536]
    74b4:	d100058e 	sub	x14, x12, #0x1
    74b8:	aa1303ed 	mov	x13, x19
    74bc:	384015b0 	ldrb	w16, [x13], #1
    74c0:	f9010fed 	str	x13, [sp, #536]
    74c4:	f90113ee 	str	x14, [sp, #544]
    74c8:	34000410 	cbz	w16, 7548 <_ZN4core4cell4once17OnceCell$LT$T$GT$8try_init17h6577ec651d954e20E+0x4f4>
    74cc:	394747ef 	ldrb	w15, [sp, #465]
    74d0:	6b0f0211 	subs	w17, w16, w15
    74d4:	54000662 	b.cs	75a0 <_ZN4core4cell4once17OnceCell$LT$T$GT$8try_init17h6577ec651d954e20E+0x54c>  // b.hs, b.nlast
    74d8:	51000610 	sub	w16, w16, #0x1
    74dc:	71002e1f 	cmp	w16, #0xb
    74e0:	54002308 	b.hi	7940 <_ZN4core4cell4once17OnceCell$LT$T$GT$8try_init17h6577ec651d954e20E+0x8ec>  // b.pmore
    74e4:	10000091 	adr	x17, 74f4 <_ZN4core4cell4once17OnceCell$LT$T$GT$8try_init17h6577ec651d954e20E+0x4a0>
    74e8:	78707ab2 	ldrh	w18, [x21, x16, lsl #1]
    74ec:	8b120a31 	add	x17, x17, x18, lsl #2
    74f0:	d61f0220 	br	x17
    74f4:	b40060ce 	cbz	x14, 810c <_ZN4core4cell4once17OnceCell$LT$T$GT$8try_init17h6577ec651d954e20E+0x10b8>
    74f8:	52800048 	mov	w8, #0x2                   	// #2
    74fc:	aa1f03ed 	mov	x13, xzr
    7500:	2a1f03eb 	mov	w11, wzr
    7504:	cb0c0109 	sub	x9, x8, x12
    7508:	91000a68 	add	x8, x19, #0x2
    750c:	385ff10e 	ldurb	w14, [x8, #-1]
    7510:	7100fd7f 	cmp	w11, #0x3f
    7514:	54000061 	b.ne	7520 <_ZN4core4cell4once17OnceCell$LT$T$GT$8try_init17h6577ec651d954e20E+0x4cc>  // b.any
    7518:	710005df 	cmp	w14, #0x1
    751c:	54007f68 	b.hi	8508 <_ZN4core4cell4once17OnceCell$LT$T$GT$8try_init17h6577ec651d954e20E+0x14b4>  // b.pmore
    7520:	924019cf 	and	x15, x14, #0x7f
    7524:	9acb21ef 	lsl	x15, x15, x11
    7528:	aa0d01ed 	orr	x13, x15, x13
    752c:	3638336e 	tbz	w14, #7, 7b98 <_ZN4core4cell4once17OnceCell$LT$T$GT$8try_init17h6577ec651d954e20E+0xb44>
    7530:	91000529 	add	x9, x9, #0x1
    7534:	91000508 	add	x8, x8, #0x1
    7538:	11001d6b 	add	w11, w11, #0x7
    753c:	f100053f 	cmp	x9, #0x1
    7540:	54fffe61 	b.ne	750c <_ZN4core4cell4once17OnceCell$LT$T$GT$8try_init17h6577ec651d954e20E+0x4b8>  // b.any
    7544:	140002ef 	b	8100 <_ZN4core4cell4once17OnceCell$LT$T$GT$8try_init17h6577ec651d954e20E+0x10ac>
    7548:	b4005e2e 	cbz	x14, 810c <_ZN4core4cell4once17OnceCell$LT$T$GT$8try_init17h6577ec651d954e20E+0x10b8>
    754c:	910323f1 	add	x17, sp, #0xc8
    7550:	aa1a03f7 	mov	x23, x26
    7554:	aa1503fa 	mov	x26, x21
    7558:	aa1f03f5 	mov	x21, xzr
    755c:	aa1f03ea 	mov	x10, xzr
    7560:	2a1f03ed 	mov	w13, wzr
    7564:	8b15026f 	add	x15, x19, x21
    7568:	7100fdbf 	cmp	w13, #0x3f
    756c:	394005ef 	ldrb	w15, [x15, #1]
    7570:	54000061 	b.ne	757c <_ZN4core4cell4once17OnceCell$LT$T$GT$8try_init17h6577ec651d954e20E+0x528>  // b.any
    7574:	710005ff 	cmp	w15, #0x1
    7578:	54005d68 	b.hi	8124 <_ZN4core4cell4once17OnceCell$LT$T$GT$8try_init17h6577ec651d954e20E+0x10d0>  // b.pmore
    757c:	924019f0 	and	x16, x15, #0x7f
    7580:	9acd2210 	lsl	x16, x16, x13
    7584:	aa0a020a 	orr	x10, x16, x10
    7588:	3638028f 	tbz	w15, #7, 75d8 <_ZN4core4cell4once17OnceCell$LT$T$GT$8try_init17h6577ec651d954e20E+0x584>
    758c:	910006b5 	add	x21, x21, #0x1
    7590:	11001dad 	add	w13, w13, #0x7
    7594:	eb1501df 	cmp	x14, x21
    7598:	54fffe61 	b.ne	7564 <_ZN4core4cell4once17OnceCell$LT$T$GT$8try_init17h6577ec651d954e20E+0x510>  // b.any
    759c:	140002d9 	b	8100 <_ZN4core4cell4once17OnceCell$LT$T$GT$8try_init17h6577ec651d954e20E+0x10ac>
    75a0:	394743ed 	ldrb	w13, [sp, #464]
    75a4:	3400992d 	cbz	w13, 88c8 <_ZN4core4cell4once17OnceCell$LT$T$GT$8try_init17h6577ec651d954e20E+0x1874>
    75a8:	12001e2c 	and	w12, w17, #0xff
    75ac:	39873fee 	ldrsb	x14, [sp, #463]
    75b0:	1acd098c 	udiv	w12, w12, w13
    75b4:	1b0dc58d 	msub	w13, w12, w13, w17
    75b8:	ab2d01cd 	adds	x13, x14, w13, uxtb
    75bc:	54000584 	b.mi	766c <_ZN4core4cell4once17OnceCell$LT$T$GT$8try_init17h6577ec651d954e20E+0x618>  // b.first
    75c0:	f940fbee 	ldr	x14, [sp, #496]
    75c4:	8b0d01cd 	add	x13, x14, x13
    75c8:	394843ee 	ldrb	w14, [sp, #528]
    75cc:	f900fbed 	str	x13, [sp, #496]
    75d0:	360005ee 	tbz	w14, #0, 768c <_ZN4core4cell4once17OnceCell$LT$T$GT$8try_init17h6577ec651d954e20E+0x638>
    75d4:	14000045 	b	76e8 <_ZN4core4cell4once17OnceCell$LT$T$GT$8try_init17h6577ec651d954e20E+0x694>
    75d8:	cb15018d 	sub	x13, x12, x21
    75dc:	d10009ad 	sub	x13, x13, #0x2
    75e0:	eb0a01bf 	cmp	x13, x10
    75e4:	8b15026d 	add	x13, x19, x21
    75e8:	54007c63 	b.cc	8574 <_ZN4core4cell4once17OnceCell$LT$T$GT$8try_init17h6577ec651d954e20E+0x1520>  // b.lo, b.ul, b.last
    75ec:	8b0a02ae 	add	x14, x21, x10
    75f0:	cb0a018c 	sub	x12, x12, x10
    75f4:	8b0e026e 	add	x14, x19, x14
    75f8:	cb15018c 	sub	x12, x12, x21
    75fc:	910009ce 	add	x14, x14, #0x2
    7600:	d100098c 	sub	x12, x12, #0x2
    7604:	f9010fee 	str	x14, [sp, #536]
    7608:	f90113ec 	str	x12, [sp, #544]
    760c:	b4007b4a 	cbz	x10, 8574 <_ZN4core4cell4once17OnceCell$LT$T$GT$8try_init17h6577ec651d954e20E+0x1520>
    7610:	394009ae 	ldrb	w14, [x13, #2]
    7614:	8b15026d 	add	x13, x19, x21
    7618:	d100054c 	sub	x12, x10, #0x1
    761c:	91000dad 	add	x13, x13, #0x3
    7620:	710009df 	cmp	w14, #0x2
    7624:	540008ec 	b.gt	7740 <_ZN4core4cell4once17OnceCell$LT$T$GT$8try_init17h6577ec651d954e20E+0x6ec>
    7628:	710005df 	cmp	w14, #0x1
    762c:	54001c80 	b.eq	79bc <_ZN4core4cell4once17OnceCell$LT$T$GT$8try_init17h6577ec651d954e20E+0x968>  // b.none
    7630:	710009df 	cmp	w14, #0x2
    7634:	54001f81 	b.ne	7a24 <_ZN4core4cell4once17OnceCell$LT$T$GT$8try_init17h6577ec651d954e20E+0x9d0>  // b.any
    7638:	394723ea 	ldrb	w10, [sp, #456]
    763c:	2a1f03e8 	mov	w8, wzr
    7640:	71000d5f 	cmp	w10, #0x3
    7644:	5400230c 	b.gt	7aa4 <_ZN4core4cell4once17OnceCell$LT$T$GT$8try_init17h6577ec651d954e20E+0xa50>
    7648:	7100055f 	cmp	w10, #0x1
    764c:	54003480 	b.eq	7cdc <_ZN4core4cell4once17OnceCell$LT$T$GT$8try_init17h6577ec651d954e20E+0xc88>  // b.none
    7650:	7100095f 	cmp	w10, #0x2
    7654:	2a0803e9 	mov	w9, w8
    7658:	540056e1 	b.ne	8134 <_ZN4core4cell4once17OnceCell$LT$T$GT$8try_init17h6577ec651d954e20E+0x10e0>  // b.any
    765c:	f100059f 	cmp	x12, #0x1
    7660:	540079e9 	b.ls	859c <_ZN4core4cell4once17OnceCell$LT$T$GT$8try_init17h6577ec651d954e20E+0x1548>  // b.plast
    7664:	794001b6 	ldrh	w22, [x13]
    7668:	140001a3 	b	7cf4 <_ZN4core4cell4once17OnceCell$LT$T$GT$8try_init17h6577ec651d954e20E+0xca0>
    766c:	f940fbee 	ldr	x14, [sp, #496]
    7670:	cb0d03ef 	neg	x15, x13
    7674:	8b0d01cd 	add	x13, x14, x13
    7678:	eb0f01df 	cmp	x14, x15
    767c:	9a8d33ed 	csel	x13, xzr, x13, cc  // cc = lo, ul, last
    7680:	394843ee 	ldrb	w14, [sp, #528]
    7684:	f900fbed 	str	x13, [sp, #496]
    7688:	3700030e 	tbnz	w14, #0, 76e8 <_ZN4core4cell4once17OnceCell$LT$T$GT$8try_init17h6577ec651d954e20E+0x694>
    768c:	39473bee 	ldrb	w14, [sp, #462]
    7690:	394737ed 	ldrb	w13, [sp, #461]
    7694:	710005df 	cmp	w14, #0x1
    7698:	540000e0 	b.eq	76b4 <_ZN4core4cell4once17OnceCell$LT$T$GT$8try_init17h6577ec651d954e20E+0x660>  // b.none
    769c:	3400910e 	cbz	w14, 88bc <_ZN4core4cell4once17OnceCell$LT$T$GT$8try_init17h6577ec651d954e20E+0x1868>
    76a0:	f940f3ef 	ldr	x15, [sp, #480]
    76a4:	8b0c01ef 	add	x15, x15, x12
    76a8:	9ace09ec 	udiv	x12, x15, x14
    76ac:	9b0ebd8e 	msub	x14, x12, x14, x15
    76b0:	14000002 	b	76b8 <_ZN4core4cell4once17OnceCell$LT$T$GT$8try_init17h6577ec651d954e20E+0x664>
    76b4:	aa1f03ee 	mov	x14, xzr
    76b8:	9b0d7d8c 	mul	x12, x12, x13
    76bc:	f940efed 	ldr	x13, [sp, #472]
    76c0:	f900f3ee 	str	x14, [sp, #480]
    76c4:	ab0d018c 	adds	x12, x12, x13
    76c8:	54007782 	b.cs	85b8 <_ZN4core4cell4once17OnceCell$LT$T$GT$8try_init17h6577ec651d954e20E+0x1564>  // b.hs, b.nlast
    76cc:	394723ed 	ldrb	w13, [sp, #456]
    76d0:	4b0d0fed 	neg	w13, w13, lsl #3
    76d4:	121d09ad 	and	w13, w13, #0x38
    76d8:	9acd270d 	lsr	x13, x24, x13
    76dc:	eb0d019f 	cmp	x12, x13
    76e0:	540076c8 	b.hi	85b8 <_ZN4core4cell4once17OnceCell$LT$T$GT$8try_init17h6577ec651d954e20E+0x1564>  // b.pmore
    76e4:	f900efec 	str	x12, [sp, #472]
    76e8:	394843ec 	ldrb	w12, [sp, #528]
    76ec:	39484fea 	ldrb	w10, [sp, #531]
    76f0:	7100059f 	cmp	w12, #0x1
    76f4:	540044a1 	b.ne	7f88 <_ZN4core4cell4once17OnceCell$LT$T$GT$8try_init17h6577ec651d954e20E+0xf34>  // b.any
    76f8:	360001aa 	tbz	w10, #0, 772c <_ZN4core4cell4once17OnceCell$LT$T$GT$8try_init17h6577ec651d954e20E+0x6d8>
    76fc:	4e080e80 	dup	v0.2d, x20
    7700:	9103a7ea 	add	x10, sp, #0xe9
    7704:	a9117eff 	stp	xzr, xzr, [x23, #272]
    7708:	a9137eff 	stp	xzr, xzr, [x23, #304]
    770c:	f900a2ff 	str	xzr, [x23, #320]
    7710:	3c8ff140 	stur	q0, [x10, #255]
    7714:	394733ea 	ldrb	w10, [sp, #460]
    7718:	390522ff 	strb	wzr, [x23, #328]
    771c:	390847ea 	strb	w10, [sp, #529]
    7720:	5280200a 	mov	w10, #0x100                 	// #256
    7724:	b804535f 	stur	wzr, [x26, #69]
    7728:	1400017e 	b	7d20 <_ZN4core4cell4once17OnceCell$LT$T$GT$8try_init17h6577ec651d954e20E+0xccc>
    772c:	f90107ff 	str	xzr, [sp, #520]
    7730:	5280200a 	mov	w10, #0x100                 	// #256
    7734:	39084bff 	strb	wzr, [sp, #530]
    7738:	79042bff 	strh	wzr, [sp, #532]
    773c:	14000179 	b	7d20 <_ZN4core4cell4once17OnceCell$LT$T$GT$8try_init17h6577ec651d954e20E+0xccc>
    7740:	71000ddf 	cmp	w14, #0x3
    7744:	540014e0 	b.eq	79e0 <_ZN4core4cell4once17OnceCell$LT$T$GT$8try_init17h6577ec651d954e20E+0x98c>  // b.none
    7748:	710011df 	cmp	w14, #0x4
    774c:	540016c1 	b.ne	7a24 <_ZN4core4cell4once17OnceCell$LT$T$GT$8try_init17h6577ec651d954e20E+0x9d0>  // b.any
    7750:	b400868c 	cbz	x12, 8820 <_ZN4core4cell4once17OnceCell$LT$T$GT$8try_init17h6577ec651d954e20E+0x17cc>
    7754:	aa1f03ee 	mov	x14, xzr
    7758:	2a1f03e8 	mov	w8, wzr
    775c:	384015a9 	ldrb	w9, [x13], #1
    7760:	7100fd1f 	cmp	w8, #0x3f
    7764:	54000061 	b.ne	7770 <_ZN4core4cell4once17OnceCell$LT$T$GT$8try_init17h6577ec651d954e20E+0x71c>  // b.any
    7768:	7100053f 	cmp	w9, #0x1
    776c:	54006f88 	b.hi	855c <_ZN4core4cell4once17OnceCell$LT$T$GT$8try_init17h6577ec651d954e20E+0x1508>  // b.pmore
    7770:	9240192b 	and	x11, x9, #0x7f
    7774:	9ac8216b 	lsl	x11, x11, x8
    7778:	aa0e016e 	orr	x14, x11, x14
    777c:	36382849 	tbz	w9, #7, 7c84 <_ZN4core4cell4once17OnceCell$LT$T$GT$8try_init17h6577ec651d954e20E+0xc30>
    7780:	d100058c 	sub	x12, x12, #0x1
    7784:	11001d08 	add	w8, w8, #0x7
    7788:	b5fffeac 	cbnz	x12, 775c <_ZN4core4cell4once17OnceCell$LT$T$GT$8try_init17h6577ec651d954e20E+0x708>
    778c:	14000352 	b	84d4 <_ZN4core4cell4once17OnceCell$LT$T$GT$8try_init17h6577ec651d954e20E+0x1480>
    7790:	b4004bee 	cbz	x14, 810c <_ZN4core4cell4once17OnceCell$LT$T$GT$8try_init17h6577ec651d954e20E+0x10b8>
    7794:	5280004a 	mov	w10, #0x2                   	// #2
    7798:	aa1f03e8 	mov	x8, xzr
    779c:	2a1f03e9 	mov	w9, wzr
    77a0:	cb0c014d 	sub	x13, x10, x12
    77a4:	91000a6b 	add	x11, x19, #0x2
    77a8:	385ff16a 	ldurb	w10, [x11, #-1]
    77ac:	7100fd3f 	cmp	w9, #0x3f
    77b0:	54000061 	b.ne	77bc <_ZN4core4cell4once17OnceCell$LT$T$GT$8try_init17h6577ec651d954e20E+0x768>  // b.any
    77b4:	7100055f 	cmp	w10, #0x1
    77b8:	54006c08 	b.hi	8538 <_ZN4core4cell4once17OnceCell$LT$T$GT$8try_init17h6577ec651d954e20E+0x14e4>  // b.pmore
    77bc:	9240194e 	and	x14, x10, #0x7f
    77c0:	9ac921ce 	lsl	x14, x14, x9
    77c4:	aa0801c8 	orr	x8, x14, x8
    77c8:	36381a6a 	tbz	w10, #7, 7b14 <_ZN4core4cell4once17OnceCell$LT$T$GT$8try_init17h6577ec651d954e20E+0xac0>
    77cc:	910005ad 	add	x13, x13, #0x1
    77d0:	9100056b 	add	x11, x11, #0x1
    77d4:	11001d29 	add	w9, w9, #0x7
    77d8:	f10005bf 	cmp	x13, #0x1
    77dc:	54fffe61 	b.ne	77a8 <_ZN4core4cell4once17OnceCell$LT$T$GT$8try_init17h6577ec651d954e20E+0x754>  // b.any
    77e0:	14000248 	b	8100 <_ZN4core4cell4once17OnceCell$LT$T$GT$8try_init17h6577ec651d954e20E+0x10ac>
    77e4:	b400494e 	cbz	x14, 810c <_ZN4core4cell4once17OnceCell$LT$T$GT$8try_init17h6577ec651d954e20E+0x10b8>
    77e8:	52800049 	mov	w9, #0x2                   	// #2
    77ec:	aa1f03e8 	mov	x8, xzr
    77f0:	2a1f03ea 	mov	w10, wzr
    77f4:	cb0c012b 	sub	x11, x9, x12
    77f8:	91000a69 	add	x9, x19, #0x2
    77fc:	385ff12d 	ldurb	w13, [x9, #-1]
    7800:	7100fd5f 	cmp	w10, #0x3f
    7804:	54000061 	b.ne	7810 <_ZN4core4cell4once17OnceCell$LT$T$GT$8try_init17h6577ec651d954e20E+0x7bc>  // b.any
    7808:	710005bf 	cmp	w13, #0x1
    780c:	540068a8 	b.hi	8520 <_ZN4core4cell4once17OnceCell$LT$T$GT$8try_init17h6577ec651d954e20E+0x14cc>  // b.pmore
    7810:	924019ae 	and	x14, x13, #0x7f
    7814:	9aca21ce 	lsl	x14, x14, x10
    7818:	aa0801c8 	orr	x8, x14, x8
    781c:	3638190d 	tbz	w13, #7, 7b3c <_ZN4core4cell4once17OnceCell$LT$T$GT$8try_init17h6577ec651d954e20E+0xae8>
    7820:	9100056b 	add	x11, x11, #0x1
    7824:	91000529 	add	x9, x9, #0x1
    7828:	11001d4a 	add	w10, w10, #0x7
    782c:	f100057f 	cmp	x11, #0x1
    7830:	54fffe61 	b.ne	77fc <_ZN4core4cell4once17OnceCell$LT$T$GT$8try_init17h6577ec651d954e20E+0x7a8>  // b.any
    7834:	14000233 	b	8100 <_ZN4core4cell4once17OnceCell$LT$T$GT$8try_init17h6577ec651d954e20E+0x10ac>
    7838:	aa1f03ea 	mov	x10, xzr
    783c:	390853f4 	strb	w20, [sp, #532]
    7840:	14000138 	b	7d20 <_ZN4core4cell4once17OnceCell$LT$T$GT$8try_init17h6577ec651d954e20E+0xccc>
    7844:	d100c3a0 	sub	x0, x29, #0x30
    7848:	910542e1 	add	x1, x23, #0x150
    784c:	940085b5 	bl	28f20 <_ZN5gimli4read6reader6Reader12read_sleb12817h339191270eccef95E>
    7850:	385d03a8 	ldurb	w8, [x29, #-48]
    7854:	f101491f 	cmp	x8, #0x52
    7858:	54007b01 	b.ne	87b8 <_ZN4core4cell4once17OnceCell$LT$T$GT$8try_init17h6577ec651d954e20E+0x1764>  // b.any
    785c:	f85d83ac 	ldur	x12, [x29, #-40]
    7860:	d348fd8b 	lsr	x11, x12, #8
    7864:	d350fd89 	lsr	x9, x12, #16
    7868:	d360fd88 	lsr	x8, x12, #32
    786c:	b7f813ec 	tbnz	x12, #63, 7ae8 <_ZN4core4cell4once17OnceCell$LT$T$GT$8try_init17h6577ec651d954e20E+0xa94>
    7870:	f940fbed 	ldr	x13, [sp, #496]
    7874:	140000a4 	b	7b04 <_ZN4core4cell4once17OnceCell$LT$T$GT$8try_init17h6577ec651d954e20E+0xab0>
    7878:	b40044ae 	cbz	x14, 810c <_ZN4core4cell4once17OnceCell$LT$T$GT$8try_init17h6577ec651d954e20E+0x10b8>
    787c:	52800049 	mov	w9, #0x2                   	// #2
    7880:	aa1f03e8 	mov	x8, xzr
    7884:	2a1f03ea 	mov	w10, wzr
    7888:	cb0c012b 	sub	x11, x9, x12
    788c:	91000a69 	add	x9, x19, #0x2
    7890:	385ff12d 	ldurb	w13, [x9, #-1]
    7894:	7100fd5f 	cmp	w10, #0x3f
    7898:	54000061 	b.ne	78a4 <_ZN4core4cell4once17OnceCell$LT$T$GT$8try_init17h6577ec651d954e20E+0x850>  // b.any
    789c:	710005bf 	cmp	w13, #0x1
    78a0:	54006288 	b.hi	84f0 <_ZN4core4cell4once17OnceCell$LT$T$GT$8try_init17h6577ec651d954e20E+0x149c>  // b.pmore
    78a4:	924019ae 	and	x14, x13, #0x7f
    78a8:	9aca21ce 	lsl	x14, x14, x10
    78ac:	aa0801c8 	orr	x8, x14, x8
    78b0:	363815ad 	tbz	w13, #7, 7b64 <_ZN4core4cell4once17OnceCell$LT$T$GT$8try_init17h6577ec651d954e20E+0xb10>
    78b4:	9100056b 	add	x11, x11, #0x1
    78b8:	91000529 	add	x9, x9, #0x1
    78bc:	11001d4a 	add	w10, w10, #0x7
    78c0:	f100057f 	cmp	x11, #0x1
    78c4:	54fffe61 	b.ne	7890 <_ZN4core4cell4once17OnceCell$LT$T$GT$8try_init17h6577ec651d954e20E+0x83c>  // b.any
    78c8:	1400020e 	b	8100 <_ZN4core4cell4once17OnceCell$LT$T$GT$8try_init17h6577ec651d954e20E+0x10ac>
    78cc:	394743ec 	ldrb	w12, [sp, #464]
    78d0:	3400802c 	cbz	w12, 88d4 <_ZN4core4cell4once17OnceCell$LT$T$GT$8try_init17h6577ec651d954e20E+0x1880>
    78d4:	394843ed 	ldrb	w13, [sp, #528]
    78d8:	36000b6d 	tbz	w13, #0, 7a44 <_ZN4core4cell4once17OnceCell$LT$T$GT$8try_init17h6577ec651d954e20E+0x9f0>
    78dc:	aa1f03ea 	mov	x10, xzr
    78e0:	14000110 	b	7d20 <_ZN4core4cell4once17OnceCell$LT$T$GT$8try_init17h6577ec651d954e20E+0xccc>
    78e4:	394847ec 	ldrb	w12, [sp, #529]
    78e8:	aa1f03ea 	mov	x10, xzr
    78ec:	5200018c 	eor	w12, w12, #0x1
    78f0:	390847ec 	strb	w12, [sp, #529]
    78f4:	1400010b 	b	7d20 <_ZN4core4cell4once17OnceCell$LT$T$GT$8try_init17h6577ec651d954e20E+0xccc>
    78f8:	aa1f03ea 	mov	x10, xzr
    78fc:	39084bf4 	strb	w20, [sp, #530]
    7900:	14000108 	b	7d20 <_ZN4core4cell4once17OnceCell$LT$T$GT$8try_init17h6577ec651d954e20E+0xccc>
    7904:	aa1f03ea 	mov	x10, xzr
    7908:	390857f4 	strb	w20, [sp, #533]
    790c:	14000105 	b	7d20 <_ZN4core4cell4once17OnceCell$LT$T$GT$8try_init17h6577ec651d954e20E+0xccc>
    7910:	f10005df 	cmp	x14, #0x1
    7914:	540076e9 	b.ls	87f0 <_ZN4core4cell4once17OnceCell$LT$T$GT$8try_init17h6577ec651d954e20E+0x179c>  // b.plast
    7918:	91000e6b 	add	x11, x19, #0x3
    791c:	d1000d8c 	sub	x12, x12, #0x3
    7920:	394843ed 	ldrb	w13, [sp, #528]
    7924:	f9010feb 	str	x11, [sp, #536]
    7928:	f90113ec 	str	x12, [sp, #544]
    792c:	7840126c 	ldurh	w12, [x19, #1]
    7930:	53087d8b 	lsr	w11, w12, #8
    7934:	36000a0d 	tbz	w13, #0, 7a74 <_ZN4core4cell4once17OnceCell$LT$T$GT$8try_init17h6577ec651d954e20E+0xa20>
    7938:	aa1f03ea 	mov	x10, xzr
    793c:	140000f9 	b	7d20 <_ZN4core4cell4once17OnceCell$LT$T$GT$8try_init17h6577ec651d954e20E+0xccc>
    7940:	a95847ef 	ldp	x15, x17, [sp, #384]
    7944:	92401e0a 	and	x10, x16, #0xff
    7948:	eb0a023f 	cmp	x17, x10
    794c:	540074a3 	b.cc	87e0 <_ZN4core4cell4once17OnceCell$LT$T$GT$8try_init17h6577ec651d954e20E+0x178c>  // b.lo, b.ul, b.last
    7950:	8b0a01ef 	add	x15, x15, x10
    7954:	540075a0 	b.eq	8808 <_ZN4core4cell4once17OnceCell$LT$T$GT$8try_init17h6577ec651d954e20E+0x17b4>  // b.none
    7958:	394001ea 	ldrb	w10, [x15]
    795c:	34001e2a 	cbz	w10, 7d20 <_ZN4core4cell4once17OnceCell$LT$T$GT$8try_init17h6577ec651d954e20E+0xccc>
    7960:	7100055f 	cmp	w10, #0x1
    7964:	54001341 	b.ne	7bcc <_ZN4core4cell4once17OnceCell$LT$T$GT$8try_init17h6577ec651d954e20E+0xb78>  // b.any
    7968:	b4003d2e 	cbz	x14, 810c <_ZN4core4cell4once17OnceCell$LT$T$GT$8try_init17h6577ec651d954e20E+0x10b8>
    796c:	52800048 	mov	w8, #0x2                   	// #2
    7970:	aa1f03ed 	mov	x13, xzr
    7974:	2a1f03ea 	mov	w10, wzr
    7978:	cb0c0109 	sub	x9, x8, x12
    797c:	91000a68 	add	x8, x19, #0x2
    7980:	385ff10b 	ldurb	w11, [x8, #-1]
    7984:	7100fd5f 	cmp	w10, #0x3f
    7988:	54000061 	b.ne	7994 <_ZN4core4cell4once17OnceCell$LT$T$GT$8try_init17h6577ec651d954e20E+0x940>  // b.any
    798c:	7100057f 	cmp	w11, #0x1
    7990:	54006768 	b.hi	867c <_ZN4core4cell4once17OnceCell$LT$T$GT$8try_init17h6577ec651d954e20E+0x1628>  // b.pmore
    7994:	9240196e 	and	x14, x11, #0x7f
    7998:	9aca21ce 	lsl	x14, x14, x10
    799c:	aa0d01cd 	orr	x13, x14, x13
    79a0:	3638222b 	tbz	w11, #7, 7de4 <_ZN4core4cell4once17OnceCell$LT$T$GT$8try_init17h6577ec651d954e20E+0xd90>
    79a4:	91000529 	add	x9, x9, #0x1
    79a8:	91000508 	add	x8, x8, #0x1
    79ac:	11001d4a 	add	w10, w10, #0x7
    79b0:	f100053f 	cmp	x9, #0x1
    79b4:	54fffe61 	b.ne	7980 <_ZN4core4cell4once17OnceCell$LT$T$GT$8try_init17h6577ec651d954e20E+0x92c>  // b.any
    79b8:	140001d2 	b	8100 <_ZN4core4cell4once17OnceCell$LT$T$GT$8try_init17h6577ec651d954e20E+0x10ac>
    79bc:	aa1a03f5 	mov	x21, x26
    79c0:	aa1703fa 	mov	x26, x23
    79c4:	910323f7 	add	x23, sp, #0xc8
    79c8:	39084ff4 	strb	w20, [sp, #531]
    79cc:	394843ec 	ldrb	w12, [sp, #528]
    79d0:	12001e8a 	and	w10, w20, #0xff
    79d4:	7100059f 	cmp	w12, #0x1
    79d8:	54ffe900 	b.eq	76f8 <_ZN4core4cell4once17OnceCell$LT$T$GT$8try_init17h6577ec651d954e20E+0x6a4>  // b.none
    79dc:	1400016b 	b	7f88 <_ZN4core4cell4once17OnceCell$LT$T$GT$8try_init17h6577ec651d954e20E+0xf34>
    79e0:	794397e8 	ldrh	w8, [sp, #458]
    79e4:	7100151f 	cmp	w8, #0x5
    79e8:	540001e2 	b.cs	7a24 <_ZN4core4cell4once17OnceCell$LT$T$GT$8try_init17h6577ec651d954e20E+0x9d0>  // b.hs, b.nlast
    79ec:	b4005d8c 	cbz	x12, 859c <_ZN4core4cell4once17OnceCell$LT$T$GT$8try_init17h6577ec651d954e20E+0x1548>
    79f0:	aa1f03f4 	mov	x20, xzr
    79f4:	8b15026b 	add	x11, x19, x21
    79f8:	d1000d49 	sub	x9, x10, #0x3
    79fc:	d1001148 	sub	x8, x10, #0x4
    7a00:	8b14016d 	add	x13, x11, x20
    7a04:	39400dad 	ldrb	w13, [x13, #3]
    7a08:	34001a8d 	cbz	w13, 7d58 <_ZN4core4cell4once17OnceCell$LT$T$GT$8try_init17h6577ec651d954e20E+0xd04>
    7a0c:	91000694 	add	x20, x20, #0x1
    7a10:	d1000529 	sub	x9, x9, #0x1
    7a14:	d1000508 	sub	x8, x8, #0x1
    7a18:	eb14019f 	cmp	x12, x20
    7a1c:	54ffff21 	b.ne	7a00 <_ZN4core4cell4once17OnceCell$LT$T$GT$8try_init17h6577ec651d954e20E+0x9ac>  // b.any
    7a20:	140002df 	b	859c <_ZN4core4cell4once17OnceCell$LT$T$GT$8try_init17h6577ec651d954e20E+0x1548>
    7a24:	8b150268 	add	x8, x19, x21
    7a28:	aa1f03ea 	mov	x10, xzr
    7a2c:	91000d08 	add	x8, x8, #0x3
    7a30:	d348fd0b 	lsr	x11, x8, #8
    7a34:	d350fd09 	lsr	x9, x8, #16
    7a38:	d360fd08 	lsr	x8, x8, #32
    7a3c:	aa1a03f5 	mov	x21, x26
    7a40:	140000b6 	b	7d18 <_ZN4core4cell4once17OnceCell$LT$T$GT$8try_init17h6577ec651d954e20E+0xcc4>
    7a44:	52001ded 	eor	w13, w15, #0xff
    7a48:	39473bee 	ldrb	w14, [sp, #462]
    7a4c:	1acc09ac 	udiv	w12, w13, w12
    7a50:	394737ed 	ldrb	w13, [sp, #461]
    7a54:	710005df 	cmp	w14, #0x1
    7a58:	54001240 	b.eq	7ca0 <_ZN4core4cell4once17OnceCell$LT$T$GT$8try_init17h6577ec651d954e20E+0xc4c>  // b.none
    7a5c:	3400730e 	cbz	w14, 88bc <_ZN4core4cell4once17OnceCell$LT$T$GT$8try_init17h6577ec651d954e20E+0x1868>
    7a60:	f940f3ef 	ldr	x15, [sp, #480]
    7a64:	8b0c01ef 	add	x15, x15, x12
    7a68:	9ace09ec 	udiv	x12, x15, x14
    7a6c:	9b0ebd8e 	msub	x14, x12, x14, x15
    7a70:	1400008d 	b	7ca4 <_ZN4core4cell4once17OnceCell$LT$T$GT$8try_init17h6577ec651d954e20E+0xc50>
    7a74:	f940efed 	ldr	x13, [sp, #472]
    7a78:	ab0c01ac 	adds	x12, x13, x12
    7a7c:	540059e2 	b.cs	85b8 <_ZN4core4cell4once17OnceCell$LT$T$GT$8try_init17h6577ec651d954e20E+0x1564>  // b.hs, b.nlast
    7a80:	394723ed 	ldrb	w13, [sp, #456]
    7a84:	4b0d0fed 	neg	w13, w13, lsl #3
    7a88:	121d09ad 	and	w13, w13, #0x38
    7a8c:	9acd270d 	lsr	x13, x24, x13
    7a90:	eb0d019f 	cmp	x12, x13
    7a94:	54005928 	b.hi	85b8 <_ZN4core4cell4once17OnceCell$LT$T$GT$8try_init17h6577ec651d954e20E+0x1564>  // b.pmore
    7a98:	aa1f03ea 	mov	x10, xzr
    7a9c:	a91dffec 	stp	x12, xzr, [sp, #472]
    7aa0:	140000a0 	b	7d20 <_ZN4core4cell4once17OnceCell$LT$T$GT$8try_init17h6577ec651d954e20E+0xccc>
    7aa4:	7100115f 	cmp	w10, #0x4
    7aa8:	54001200 	b.eq	7ce8 <_ZN4core4cell4once17OnceCell$LT$T$GT$8try_init17h6577ec651d954e20E+0xc94>  // b.none
    7aac:	7100215f 	cmp	w10, #0x8
    7ab0:	2a0803e9 	mov	w9, w8
    7ab4:	54003401 	b.ne	8134 <_ZN4core4cell4once17OnceCell$LT$T$GT$8try_init17h6577ec651d954e20E+0x10e0>  // b.any
    7ab8:	f1001d9f 	cmp	x12, #0x7
    7abc:	54005709 	b.ls	859c <_ZN4core4cell4once17OnceCell$LT$T$GT$8try_init17h6577ec651d954e20E+0x1548>  // b.plast
    7ac0:	394019a8 	ldrb	w8, [x13, #6]
    7ac4:	794009a9 	ldrh	w9, [x13, #4]
    7ac8:	b94001ab 	ldr	w11, [x13]
    7acc:	2a084128 	orr	w8, w9, w8, lsl #16
    7ad0:	d378dd69 	lsl	x9, x11, #8
    7ad4:	8b15026b 	add	x11, x19, x21
    7ad8:	3940296b 	ldrb	w11, [x11, #10]
    7adc:	aa08a128 	orr	x8, x9, x8, lsl #40
    7ae0:	93c82176 	extr	x22, x11, x8, #8
    7ae4:	14000084 	b	7cf4 <_ZN4core4cell4once17OnceCell$LT$T$GT$8try_init17h6577ec651d954e20E+0xca0>
    7ae8:	f940fbed 	ldr	x13, [sp, #496]
    7aec:	cb0c03ea 	neg	x10, x12
    7af0:	eb0a01bf 	cmp	x13, x10
    7af4:	54000082 	b.cs	7b04 <_ZN4core4cell4once17OnceCell$LT$T$GT$8try_init17h6577ec651d954e20E+0xab0>  // b.hs, b.nlast
    7af8:	aa1f03ea 	mov	x10, xzr
    7afc:	f900fbff 	str	xzr, [sp, #496]
    7b00:	14000088 	b	7d20 <_ZN4core4cell4once17OnceCell$LT$T$GT$8try_init17h6577ec651d954e20E+0xccc>
    7b04:	aa1f03ea 	mov	x10, xzr
    7b08:	8b0c01ac 	add	x12, x13, x12
    7b0c:	f900fbec 	str	x12, [sp, #496]
    7b10:	14000084 	b	7d20 <_ZN4core4cell4once17OnceCell$LT$T$GT$8try_init17h6577ec651d954e20E+0xccc>
    7b14:	cb0d03e9 	neg	x9, x13
    7b18:	aa1f03ea 	mov	x10, xzr
    7b1c:	d348fd0c 	lsr	x12, x8, #8
    7b20:	f90113e9 	str	x9, [sp, #544]
    7b24:	d350fd09 	lsr	x9, x8, #16
    7b28:	d360fd0d 	lsr	x13, x8, #32
    7b2c:	f9010feb 	str	x11, [sp, #536]
    7b30:	f90103e8 	str	x8, [sp, #512]
    7b34:	f9003be8 	str	x8, [sp, #112]
    7b38:	14000015 	b	7b8c <_ZN4core4cell4once17OnceCell$LT$T$GT$8try_init17h6577ec651d954e20E+0xb38>
    7b3c:	cb0b03eb 	neg	x11, x11
    7b40:	aa1f03ea 	mov	x10, xzr
    7b44:	d348fd0c 	lsr	x12, x8, #8
    7b48:	f90113eb 	str	x11, [sp, #544]
    7b4c:	d350fd0b 	lsr	x11, x8, #16
    7b50:	d360fd0d 	lsr	x13, x8, #32
    7b54:	f9010fe9 	str	x9, [sp, #536]
    7b58:	f900ffe8 	str	x8, [sp, #504]
    7b5c:	f90037e8 	str	x8, [sp, #104]
    7b60:	1400000a 	b	7b88 <_ZN4core4cell4once17OnceCell$LT$T$GT$8try_init17h6577ec651d954e20E+0xb34>
    7b64:	cb0b03eb 	neg	x11, x11
    7b68:	d348fd0c 	lsr	x12, x8, #8
    7b6c:	d360fd0d 	lsr	x13, x8, #32
    7b70:	f90113eb 	str	x11, [sp, #544]
    7b74:	d350fd0b 	lsr	x11, x8, #16
    7b78:	aa1f03ea 	mov	x10, xzr
    7b7c:	f9010fe9 	str	x9, [sp, #536]
    7b80:	f900f7e8 	str	x8, [sp, #488]
    7b84:	f90033e8 	str	x8, [sp, #96]
    7b88:	2a0b03e9 	mov	w9, w11
    7b8c:	2a0d03e8 	mov	w8, w13
    7b90:	2a0c03eb 	mov	w11, w12
    7b94:	14000063 	b	7d20 <_ZN4core4cell4once17OnceCell$LT$T$GT$8try_init17h6577ec651d954e20E+0xccc>
    7b98:	d350fdac 	lsr	x12, x13, #16
    7b9c:	d360fdae 	lsr	x14, x13, #32
    7ba0:	cb0903e9 	neg	x9, x9
    7ba4:	394843ef 	ldrb	w15, [sp, #528]
    7ba8:	d348fdab 	lsr	x11, x13, #8
    7bac:	f9010fe8 	str	x8, [sp, #536]
    7bb0:	f90113e9 	str	x9, [sp, #544]
    7bb4:	2a0c03e9 	mov	w9, w12
    7bb8:	2a0e03e8 	mov	w8, w14
    7bbc:	3600100f 	tbz	w15, #0, 7dbc <_ZN4core4cell4once17OnceCell$LT$T$GT$8try_init17h6577ec651d954e20E+0xd68>
    7bc0:	aa1f03ea 	mov	x10, xzr
    7bc4:	f9002fed 	str	x13, [sp, #88]
    7bc8:	14000056 	b	7d20 <_ZN4core4cell4once17OnceCell$LT$T$GT$8try_init17h6577ec651d954e20E+0xccc>
    7bcc:	f94027e6 	ldr	x6, [sp, #72]
    7bd0:	cb1303ef 	neg	x15, x19
    7bd4:	aa0d03ec 	mov	x12, x13
    7bd8:	aa0e03f1 	mov	x17, x14
    7bdc:	52800032 	mov	w18, #0x1                   	// #1
    7be0:	b4005431 	cbz	x17, 8664 <_ZN4core4cell4once17OnceCell$LT$T$GT$8try_init17h6577ec651d954e20E+0x1610>
    7be4:	aa1f03f0 	mov	x16, xzr
    7be8:	2a1f03e3 	mov	w3, wzr
    7bec:	cb110282 	sub	x2, x20, x17
    7bf0:	91000581 	add	x1, x12, #0x1
    7bf4:	8b0c01e0 	add	x0, x15, x12
    7bf8:	385ff024 	ldurb	w4, [x1, #-1]
    7bfc:	7100fc7f 	cmp	w3, #0x3f
    7c00:	54000061 	b.ne	7c0c <_ZN4core4cell4once17OnceCell$LT$T$GT$8try_init17h6577ec651d954e20E+0xbb8>  // b.any
    7c04:	7100049f 	cmp	w4, #0x1
    7c08:	540051c8 	b.hi	8640 <_ZN4core4cell4once17OnceCell$LT$T$GT$8try_init17h6577ec651d954e20E+0x15ec>  // b.pmore
    7c0c:	92401885 	and	x5, x4, #0x7f
    7c10:	9ac320a5 	lsl	x5, x5, x3
    7c14:	aa1000b0 	orr	x16, x5, x16
    7c18:	36380104 	tbz	w4, #7, 7c38 <_ZN4core4cell4once17OnceCell$LT$T$GT$8try_init17h6577ec651d954e20E+0xbe4>
    7c1c:	91000442 	add	x2, x2, #0x1
    7c20:	91000421 	add	x1, x1, #0x1
    7c24:	11001c63 	add	w3, w3, #0x7
    7c28:	f100045f 	cmp	x2, #0x1
    7c2c:	91000400 	add	x0, x0, #0x1
    7c30:	54fffe41 	b.ne	7bf8 <_ZN4core4cell4once17OnceCell$LT$T$GT$8try_init17h6577ec651d954e20E+0xba4>  // b.any
    7c34:	14000289 	b	8658 <_ZN4core4cell4once17OnceCell$LT$T$GT$8try_init17h6577ec651d954e20E+0x1604>
    7c38:	cb0203f1 	neg	x17, x2
    7c3c:	eb0a025f 	cmp	x18, x10
    7c40:	91000652 	add	x18, x18, #0x1
    7c44:	aa0103ec 	mov	x12, x1
    7c48:	aa1003e6 	mov	x6, x16
    7c4c:	f9010fe1 	str	x1, [sp, #536]
    7c50:	f90113f1 	str	x17, [sp, #544]
    7c54:	54fffc61 	b.ne	7be0 <_ZN4core4cell4once17OnceCell$LT$T$GT$8try_init17h6577ec651d954e20E+0xb8c>  // b.any
    7c58:	eb0001df 	cmp	x14, x0
    7c5c:	540060a3 	b.cc	8870 <_ZN4core4cell4once17OnceCell$LT$T$GT$8try_init17h6577ec651d954e20E+0x181c>  // b.lo, b.ul, b.last
    7c60:	d348fdab 	lsr	x11, x13, #8
    7c64:	d350fda9 	lsr	x9, x13, #16
    7c68:	d360fda8 	lsr	x8, x13, #32
    7c6c:	aa1f03ea 	mov	x10, xzr
    7c70:	f90027f0 	str	x16, [sp, #72]
    7c74:	d100c3bb 	sub	x27, x29, #0x30
    7c78:	52800034 	mov	w20, #0x1                   	// #1
    7c7c:	92800018 	mov	x24, #0xffffffffffffffff    	// #-1
    7c80:	14000027 	b	7d1c <_ZN4core4cell4once17OnceCell$LT$T$GT$8try_init17h6577ec651d954e20E+0xcc8>
    7c84:	d350fdc9 	lsr	x9, x14, #16
    7c88:	d348fdcb 	lsr	x11, x14, #8
    7c8c:	d360fdc8 	lsr	x8, x14, #32
    7c90:	aa1f03ea 	mov	x10, xzr
    7c94:	f90107ee 	str	x14, [sp, #520]
    7c98:	f9002bee 	str	x14, [sp, #80]
    7c9c:	17ffff68 	b	7a3c <_ZN4core4cell4once17OnceCell$LT$T$GT$8try_init17h6577ec651d954e20E+0x9e8>
    7ca0:	aa1f03ee 	mov	x14, xzr
    7ca4:	9b0d7d8c 	mul	x12, x12, x13
    7ca8:	f940efed 	ldr	x13, [sp, #472]
    7cac:	f900f3ee 	str	x14, [sp, #480]
    7cb0:	ab0d018c 	adds	x12, x12, x13
    7cb4:	54004822 	b.cs	85b8 <_ZN4core4cell4once17OnceCell$LT$T$GT$8try_init17h6577ec651d954e20E+0x1564>  // b.hs, b.nlast
    7cb8:	394723ed 	ldrb	w13, [sp, #456]
    7cbc:	4b0d0fed 	neg	w13, w13, lsl #3
    7cc0:	121d09ad 	and	w13, w13, #0x38
    7cc4:	9acd270d 	lsr	x13, x24, x13
    7cc8:	eb0d019f 	cmp	x12, x13
    7ccc:	54004768 	b.hi	85b8 <_ZN4core4cell4once17OnceCell$LT$T$GT$8try_init17h6577ec651d954e20E+0x1564>  // b.pmore
    7cd0:	aa1f03ea 	mov	x10, xzr
    7cd4:	f900efec 	str	x12, [sp, #472]
    7cd8:	14000012 	b	7d20 <_ZN4core4cell4once17OnceCell$LT$T$GT$8try_init17h6577ec651d954e20E+0xccc>
    7cdc:	b400460c 	cbz	x12, 859c <_ZN4core4cell4once17OnceCell$LT$T$GT$8try_init17h6577ec651d954e20E+0x1548>
    7ce0:	394001b6 	ldrb	w22, [x13]
    7ce4:	14000004 	b	7cf4 <_ZN4core4cell4once17OnceCell$LT$T$GT$8try_init17h6577ec651d954e20E+0xca0>
    7ce8:	f1000d9f 	cmp	x12, #0x3
    7cec:	54004589 	b.ls	859c <_ZN4core4cell4once17OnceCell$LT$T$GT$8try_init17h6577ec651d954e20E+0x1548>  // b.plast
    7cf0:	b94001b6 	ldr	w22, [x13]
    7cf4:	f940efec 	ldr	x12, [sp, #472]
    7cf8:	d348fecb 	lsr	x11, x22, #8
    7cfc:	d350fec9 	lsr	x9, x22, #16
    7d00:	d360fec8 	lsr	x8, x22, #32
    7d04:	aa1a03f5 	mov	x21, x26
    7d08:	eb0c02df 	cmp	x22, x12
    7d0c:	54000102 	b.cs	7d2c <_ZN4core4cell4once17OnceCell$LT$T$GT$8try_init17h6577ec651d954e20E+0xcd8>  // b.hs, b.nlast
    7d10:	aa1f03ea 	mov	x10, xzr
    7d14:	390843f4 	strb	w20, [sp, #528]
    7d18:	aa1703fa 	mov	x26, x23
    7d1c:	910323f7 	add	x23, sp, #0xc8
    7d20:	f94113ec 	ldr	x12, [sp, #544]
    7d24:	b5ffbc6c 	cbnz	x12, 74b0 <_ZN4core4cell4once17OnceCell$LT$T$GT$8try_init17h6577ec651d954e20E+0x45c>
    7d28:	14000153 	b	8274 <_ZN4core4cell4once17OnceCell$LT$T$GT$8try_init17h6577ec651d954e20E+0x1220>
    7d2c:	4b0a0fea 	neg	w10, w10, lsl #3
    7d30:	aa1703fa 	mov	x26, x23
    7d34:	121d094a 	and	w10, w10, #0x38
    7d38:	9aca270a 	lsr	x10, x24, x10
    7d3c:	eb0a02df 	cmp	x22, x10
    7d40:	1a9f17ea 	cset	w10, eq  // eq = none
    7d44:	390843ea 	strb	w10, [sp, #528]
    7d48:	aa1f03ea 	mov	x10, xzr
    7d4c:	54fffe80 	b.eq	7d1c <_ZN4core4cell4once17OnceCell$LT$T$GT$8try_init17h6577ec651d954e20E+0xcc8>  // b.none
    7d50:	a91dfff6 	stp	x22, xzr, [sp, #472]
    7d54:	17fffff2 	b	7d1c <_ZN4core4cell4once17OnceCell$LT$T$GT$8try_init17h6577ec651d954e20E+0xcc8>
    7d58:	8b15026c 	add	x12, x19, x21
    7d5c:	d100094b 	sub	x11, x10, #0x2
    7d60:	8b14018c 	add	x12, x12, x20
    7d64:	eb14017f 	cmp	x11, x20
    7d68:	9100118b 	add	x11, x12, #0x4
    7d6c:	540056c0 	b.eq	8844 <_ZN4core4cell4once17OnceCell$LT$T$GT$8try_init17h6577ec651d954e20E+0x17f0>  // b.none
    7d70:	aa1f03fb 	mov	x27, xzr
    7d74:	2a1f03ec 	mov	w12, wzr
    7d78:	aa0b03ed 	mov	x13, x11
    7d7c:	384015ae 	ldrb	w14, [x13], #1
    7d80:	7100fd9f 	cmp	w12, #0x3f
    7d84:	54000061 	b.ne	7d90 <_ZN4core4cell4once17OnceCell$LT$T$GT$8try_init17h6577ec651d954e20E+0xd3c>  // b.any
    7d88:	710005df 	cmp	w14, #0x1
    7d8c:	54001cc8 	b.hi	8124 <_ZN4core4cell4once17OnceCell$LT$T$GT$8try_init17h6577ec651d954e20E+0x10d0>  // b.pmore
    7d90:	924019cf 	and	x15, x14, #0x7f
    7d94:	9acc21ef 	lsl	x15, x15, x12
    7d98:	aa1b01fb 	orr	x27, x15, x27
    7d9c:	363805ee 	tbz	w14, #7, 7e58 <_ZN4core4cell4once17OnceCell$LT$T$GT$8try_init17h6577ec651d954e20E+0xe04>
    7da0:	d1000529 	sub	x9, x9, #0x1
    7da4:	11001d8c 	add	w12, w12, #0x7
    7da8:	d1000508 	sub	x8, x8, #0x1
    7dac:	b100053f 	cmn	x9, #0x1
    7db0:	aa0d03eb 	mov	x11, x13
    7db4:	54fffe41 	b.ne	7d7c <_ZN4core4cell4once17OnceCell$LT$T$GT$8try_init17h6577ec651d954e20E+0xd28>  // b.any
    7db8:	140001c7 	b	84d4 <_ZN4core4cell4once17OnceCell$LT$T$GT$8try_init17h6577ec651d954e20E+0x1480>
    7dbc:	39473bee 	ldrb	w14, [sp, #462]
    7dc0:	394737ec 	ldrb	w12, [sp, #461]
    7dc4:	710005df 	cmp	w14, #0x1
    7dc8:	54000260 	b.eq	7e14 <_ZN4core4cell4once17OnceCell$LT$T$GT$8try_init17h6577ec651d954e20E+0xdc0>  // b.none
    7dcc:	3400578e 	cbz	w14, 88bc <_ZN4core4cell4once17OnceCell$LT$T$GT$8try_init17h6577ec651d954e20E+0x1868>
    7dd0:	f940f3ef 	ldr	x15, [sp, #480]
    7dd4:	8b0d01f0 	add	x16, x15, x13
    7dd8:	9ace0a0f 	udiv	x15, x16, x14
    7ddc:	9b0ec1ee 	msub	x14, x15, x14, x16
    7de0:	1400000f 	b	7e1c <_ZN4core4cell4once17OnceCell$LT$T$GT$8try_init17h6577ec651d954e20E+0xdc8>
    7de4:	d350fdab 	lsr	x11, x13, #16
    7de8:	d348fdac 	lsr	x12, x13, #8
    7dec:	d360fdae 	lsr	x14, x13, #32
    7df0:	cb0903e9 	neg	x9, x9
    7df4:	aa1f03ea 	mov	x10, xzr
    7df8:	f9010fe8 	str	x8, [sp, #536]
    7dfc:	f90113e9 	str	x9, [sp, #544]
    7e00:	2a0b03e9 	mov	w9, w11
    7e04:	2a0e03e8 	mov	w8, w14
    7e08:	2a0c03eb 	mov	w11, w12
    7e0c:	f9001bed 	str	x13, [sp, #48]
    7e10:	17ffffc4 	b	7d20 <_ZN4core4cell4once17OnceCell$LT$T$GT$8try_init17h6577ec651d954e20E+0xccc>
    7e14:	aa1f03ee 	mov	x14, xzr
    7e18:	aa0d03ef 	mov	x15, x13
    7e1c:	9b0c7dec 	mul	x12, x15, x12
    7e20:	f940efef 	ldr	x15, [sp, #472]
    7e24:	f900f3ee 	str	x14, [sp, #480]
    7e28:	ab0f018c 	adds	x12, x12, x15
    7e2c:	54003c62 	b.cs	85b8 <_ZN4core4cell4once17OnceCell$LT$T$GT$8try_init17h6577ec651d954e20E+0x1564>  // b.hs, b.nlast
    7e30:	394723ee 	ldrb	w14, [sp, #456]
    7e34:	4b0e0fee 	neg	w14, w14, lsl #3
    7e38:	121d09ce 	and	w14, w14, #0x38
    7e3c:	9ace270e 	lsr	x14, x24, x14
    7e40:	eb0e019f 	cmp	x12, x14
    7e44:	54003ba8 	b.hi	85b8 <_ZN4core4cell4once17OnceCell$LT$T$GT$8try_init17h6577ec651d954e20E+0x1564>  // b.pmore
    7e48:	aa1f03ea 	mov	x10, xzr
    7e4c:	f900efec 	str	x12, [sp, #472]
    7e50:	f9002fed 	str	x13, [sp, #88]
    7e54:	17ffffb3 	b	7d20 <_ZN4core4cell4once17OnceCell$LT$T$GT$8try_init17h6577ec651d954e20E+0xccc>
    7e58:	9100056a 	add	x10, x11, #0x1
    7e5c:	b4004f89 	cbz	x9, 884c <_ZN4core4cell4once17OnceCell$LT$T$GT$8try_init17h6577ec651d954e20E+0x17f8>
    7e60:	aa1f03f8 	mov	x24, xzr
    7e64:	2a1f03ec 	mov	w12, wzr
    7e68:	aa0a03ed 	mov	x13, x10
    7e6c:	384015ae 	ldrb	w14, [x13], #1
    7e70:	7100fd9f 	cmp	w12, #0x3f
    7e74:	54000061 	b.ne	7e80 <_ZN4core4cell4once17OnceCell$LT$T$GT$8try_init17h6577ec651d954e20E+0xe2c>  // b.any
    7e78:	710005df 	cmp	w14, #0x1
    7e7c:	54001548 	b.hi	8124 <_ZN4core4cell4once17OnceCell$LT$T$GT$8try_init17h6577ec651d954e20E+0x10d0>  // b.pmore
    7e80:	924019cf 	and	x15, x14, #0x7f
    7e84:	9acc21ef 	lsl	x15, x15, x12
    7e88:	aa1801f8 	orr	x24, x15, x24
    7e8c:	363800ee 	tbz	w14, #7, 7ea8 <_ZN4core4cell4once17OnceCell$LT$T$GT$8try_init17h6577ec651d954e20E+0xe54>
    7e90:	d1000508 	sub	x8, x8, #0x1
    7e94:	11001d8c 	add	w12, w12, #0x7
    7e98:	aa0d03ea 	mov	x10, x13
    7e9c:	b100051f 	cmn	x8, #0x1
    7ea0:	54fffe61 	b.ne	7e6c <_ZN4core4cell4once17OnceCell$LT$T$GT$8try_init17h6577ec651d954e20E+0xe18>  // b.any
    7ea4:	14000262 	b	882c <_ZN4core4cell4once17OnceCell$LT$T$GT$8try_init17h6577ec651d954e20E+0x17d8>
    7ea8:	91000549 	add	x9, x10, #0x1
    7eac:	b4004d48 	cbz	x8, 8854 <_ZN4core4cell4once17OnceCell$LT$T$GT$8try_init17h6577ec651d954e20E+0x1800>
    7eb0:	aa1f03ef 	mov	x15, xzr
    7eb4:	2a1f03eb 	mov	w11, wzr
    7eb8:	aa0803ec 	mov	x12, x8
    7ebc:	3840152d 	ldrb	w13, [x9], #1
    7ec0:	7100fd7f 	cmp	w11, #0x3f
    7ec4:	54000061 	b.ne	7ed0 <_ZN4core4cell4once17OnceCell$LT$T$GT$8try_init17h6577ec651d954e20E+0xe7c>  // b.any
    7ec8:	710005bf 	cmp	w13, #0x1
    7ecc:	540012c8 	b.hi	8124 <_ZN4core4cell4once17OnceCell$LT$T$GT$8try_init17h6577ec651d954e20E+0x10d0>  // b.pmore
    7ed0:	924019ae 	and	x14, x13, #0x7f
    7ed4:	9acb21ce 	lsl	x14, x14, x11
    7ed8:	aa0f01cf 	orr	x15, x14, x15
    7edc:	363800ad 	tbz	w13, #7, 7ef0 <_ZN4core4cell4once17OnceCell$LT$T$GT$8try_init17h6577ec651d954e20E+0xe9c>
    7ee0:	d100058c 	sub	x12, x12, #0x1
    7ee4:	11001d6b 	add	w11, w11, #0x7
    7ee8:	b5fffeac 	cbnz	x12, 7ebc <_ZN4core4cell4once17OnceCell$LT$T$GT$8try_init17h6577ec651d954e20E+0xe68>
    7eec:	14000253 	b	8838 <_ZN4core4cell4once17OnceCell$LT$T$GT$8try_init17h6577ec651d954e20E+0x17e4>
    7ef0:	f940bfe9 	ldr	x9, [sp, #376]
    7ef4:	f940b7e8 	ldr	x8, [sp, #360]
    7ef8:	eb08013f 	cmp	x9, x8
    7efc:	a9023fe9 	stp	x9, x15, [sp, #32]
    7f00:	54000061 	b.ne	7f0c <_ZN4core4cell4once17OnceCell$LT$T$GT$8try_init17h6577ec651d954e20E+0xeb8>  // b.any
    7f04:	91028220 	add	x0, x17, #0xa0
    7f08:	94000318 	bl	8b68 <_ZN5alloc7raw_vec19RawVec$LT$T$C$A$GT$8grow_one17h118103f54922d7ffE>
    7f0c:	f94013ee 	ldr	x14, [sp, #32]
    7f10:	f940bbe8 	ldr	x8, [sp, #368]
    7f14:	52800b09 	mov	w9, #0x58                  	// #88
    7f18:	528003eb 	mov	w11, #0x1f                  	// #31
    7f1c:	aa1f03ea 	mov	x10, xzr
    7f20:	9b0921c8 	madd	x8, x14, x9, x8
    7f24:	8b150269 	add	x9, x19, x21
    7f28:	910005ce 	add	x14, x14, #0x1
    7f2c:	91000d29 	add	x9, x9, #0x3
    7f30:	d348fd2c 	lsr	x12, x9, #8
    7f34:	d360fd2d 	lsr	x13, x9, #32
    7f38:	a900250b 	stp	x11, x9, [x8]
    7f3c:	528005cb 	mov	w11, #0x2e                  	// #46
    7f40:	3900610b 	strb	w11, [x8, #24]
    7f44:	d350fd2b 	lsr	x11, x9, #16
    7f48:	f94017e9 	ldr	x9, [sp, #40]
    7f4c:	f9000914 	str	x20, [x8, #16]
    7f50:	52800034 	mov	w20, #0x1                   	// #1
    7f54:	39007d1f 	strb	wzr, [x8, #31]
    7f58:	7801d11f 	sturh	wzr, [x8, #29]
    7f5c:	b801911f 	stur	wzr, [x8, #25]
    7f60:	a903611b 	stp	x27, x24, [x8, #48]
    7f64:	d100c3bb 	sub	x27, x29, #0x30
    7f68:	92800018 	mov	x24, #0xffffffffffffffff    	// #-1
    7f6c:	a904fd1f 	stp	xzr, xzr, [x8, #72]
    7f70:	f9002109 	str	x9, [x8, #64]
    7f74:	2a0b03e9 	mov	w9, w11
    7f78:	2a0d03e8 	mov	w8, w13
    7f7c:	2a0c03eb 	mov	w11, w12
    7f80:	f900bfee 	str	x14, [sp, #376]
    7f84:	17fffeae 	b	7a3c <_ZN4core4cell4once17OnceCell$LT$T$GT$8try_init17h6577ec651d954e20E+0x9e8>
    7f88:	3600060a 	tbz	w10, #0, 8048 <_ZN4core4cell4once17OnceCell$LT$T$GT$8try_init17h6577ec651d954e20E+0xff4>
    7f8c:	f94007f8 	ldr	x24, [sp, #8]
    7f90:	b4000ad8 	cbz	x24, 80e8 <_ZN4core4cell4once17OnceCell$LT$T$GT$8try_init17h6577ec651d954e20E+0x1094>
    7f94:	a94b73e8 	ldp	x8, x28, [sp, #176]
    7f98:	f940eff4 	ldr	x20, [sp, #472]
    7f9c:	3dc023e0 	ldr	q0, [sp, #128]
    7fa0:	f90063ff 	str	xzr, [sp, #192]
    7fa4:	f9400389 	ldr	x9, [x28]
    7fa8:	eb18011f 	cmp	x8, x24
    7fac:	3d802fe0 	str	q0, [sp, #176]
    7fb0:	a906ebe9 	stp	x9, x26, [sp, #104]
    7fb4:	aa1503fa 	mov	x26, x21
    7fb8:	540001a9 	b.ls	7fec <_ZN4core4cell4once17OnceCell$LT$T$GT$8try_init17h6577ec651d954e20E+0xf98>  // b.plast
    7fbc:	8b080508 	add	x8, x8, x8, lsl #1
    7fc0:	8b180709 	add	x9, x24, x24, lsl #1
    7fc4:	aa1c03e0 	mov	x0, x28
    7fc8:	52800102 	mov	w2, #0x8                   	// #8
    7fcc:	aa1c03f5 	mov	x21, x28
    7fd0:	d37df117 	lsl	x23, x8, #3
    7fd4:	d37df123 	lsl	x3, x9, #3
    7fd8:	aa1703e1 	mov	x1, x23
    7fdc:	aa0303f3 	mov	x19, x3
    7fe0:	940007a5 	bl	9e74 <_RNvCsiGVaDesi5rv_7___rustc14___rust_realloc>
    7fe4:	aa0003fc 	mov	x28, x0
    7fe8:	b4004840 	cbz	x0, 88f0 <_ZN4core4cell4once17OnceCell$LT$T$GT$8try_init17h6577ec651d954e20E+0x189c>
    7fec:	f94057f5 	ldr	x21, [sp, #168]
    7ff0:	f9404fe8 	ldr	x8, [sp, #152]
    7ff4:	eb0802bf 	cmp	x21, x8
    7ff8:	54000061 	b.ne	8004 <_ZN4core4cell4once17OnceCell$LT$T$GT$8try_init17h6577ec651d954e20E+0xfb0>  // b.any
    7ffc:	910263e0 	add	x0, sp, #0x98
    8000:	940002f4 	bl	8bd0 <_ZN5alloc7raw_vec19RawVec$LT$T$C$A$GT$8grow_one17h1353df0b97ca0e95E>
    8004:	f94053e8 	ldr	x8, [sp, #160]
    8008:	f94037e9 	ldr	x9, [sp, #104]
    800c:	f90007ff 	str	xzr, [sp, #8]
    8010:	8b151508 	add	x8, x8, x21, lsl #5
    8014:	a9015109 	stp	x9, x20, [x8, #16]
    8018:	910006a9 	add	x9, x21, #0x1
    801c:	aa1a03f5 	mov	x21, x26
    8020:	f9403bfa 	ldr	x26, [sp, #112]
    8024:	a900611c 	stp	x28, x24, [x8]
    8028:	5280011c 	mov	w28, #0x8                   	// #8
    802c:	f90057e9 	str	x9, [sp, #168]
    8030:	910323f7 	add	x23, sp, #0xc8
    8034:	39484fed 	ldrb	w13, [sp, #531]
    8038:	52800034 	mov	w20, #0x1                   	// #1
    803c:	92800018 	mov	x24, #0xffffffffffffffff    	// #-1
    8040:	3707a1ad 	tbnz	w13, #0, 7474 <_ZN4core4cell4once17OnceCell$LT$T$GT$8try_init17h6577ec651d954e20E+0x420>
    8044:	17fffd15 	b	7498 <_ZN4core4cell4once17OnceCell$LT$T$GT$8try_init17h6577ec651d954e20E+0x444>
    8048:	aa1a03f7 	mov	x23, x26
    804c:	aa1503fa 	mov	x26, x21
    8050:	f940eff8 	ldr	x24, [sp, #472]
    8054:	f940f7f5 	ldr	x21, [sp, #488]
    8058:	b941f3f4 	ldr	w20, [sp, #496]
    805c:	b941fbf3 	ldr	w19, [sp, #504]
    8060:	f94007ea 	ldr	x10, [sp, #8]
    8064:	b400016a 	cbz	x10, 8090 <_ZN4core4cell4once17OnceCell$LT$T$GT$8try_init17h6577ec651d954e20E+0x103c>
    8068:	52800308 	mov	w8, #0x18                  	// #24
    806c:	9b087148 	madd	x8, x10, x8, x28
    8070:	d1006109 	sub	x9, x8, #0x18
    8074:	b40000e9 	cbz	x9, 8090 <_ZN4core4cell4once17OnceCell$LT$T$GT$8try_init17h6577ec651d954e20E+0x103c>
    8078:	f9400129 	ldr	x9, [x9]
    807c:	eb18013f 	cmp	x9, x24
    8080:	54000081 	b.ne	8090 <_ZN4core4cell4once17OnceCell$LT$T$GT$8try_init17h6577ec651d954e20E+0x103c>  // b.any
    8084:	f81f0115 	stur	x21, [x8, #-16]
    8088:	293f4d14 	stp	w20, w19, [x8, #-8]
    808c:	1400000f 	b	80c8 <_ZN4core4cell4once17OnceCell$LT$T$GT$8try_init17h6577ec651d954e20E+0x1074>
    8090:	f9405be8 	ldr	x8, [sp, #176]
    8094:	eb08015f 	cmp	x10, x8
    8098:	54000081 	b.ne	80a8 <_ZN4core4cell4once17OnceCell$LT$T$GT$8try_init17h6577ec651d954e20E+0x1054>  // b.any
    809c:	9102c3e0 	add	x0, sp, #0xb0
    80a0:	9400031a 	bl	8d08 <_ZN5alloc7raw_vec19RawVec$LT$T$C$A$GT$8grow_one17h235a7742b0bc8973E>
    80a4:	f9405ffc 	ldr	x28, [sp, #184]
    80a8:	f94007e9 	ldr	x9, [sp, #8]
    80ac:	52800308 	mov	w8, #0x18                  	// #24
    80b0:	9b087128 	madd	x8, x9, x8, x28
    80b4:	91000529 	add	x9, x9, #0x1
    80b8:	f90007e9 	str	x9, [sp, #8]
    80bc:	a9005518 	stp	x24, x21, [x8]
    80c0:	29024d14 	stp	w20, w19, [x8, #16]
    80c4:	f90063e9 	str	x9, [sp, #192]
    80c8:	aa1a03f5 	mov	x21, x26
    80cc:	aa1703fa 	mov	x26, x23
    80d0:	910323f7 	add	x23, sp, #0xc8
    80d4:	39484fed 	ldrb	w13, [sp, #531]
    80d8:	52800034 	mov	w20, #0x1                   	// #1
    80dc:	92800018 	mov	x24, #0xffffffffffffffff    	// #-1
    80e0:	37079cad 	tbnz	w13, #0, 7474 <_ZN4core4cell4once17OnceCell$LT$T$GT$8try_init17h6577ec651d954e20E+0x420>
    80e4:	17fffced 	b	7498 <_ZN4core4cell4once17OnceCell$LT$T$GT$8try_init17h6577ec651d954e20E+0x444>
    80e8:	f90007ff 	str	xzr, [sp, #8]
    80ec:	39484fed 	ldrb	w13, [sp, #531]
    80f0:	52800034 	mov	w20, #0x1                   	// #1
    80f4:	92800018 	mov	x24, #0xffffffffffffffff    	// #-1
    80f8:	37079bed 	tbnz	w13, #0, 7474 <_ZN4core4cell4once17OnceCell$LT$T$GT$8try_init17h6577ec651d954e20E+0x420>
    80fc:	17fffce7 	b	7498 <_ZN4core4cell4once17OnceCell$LT$T$GT$8try_init17h6577ec651d954e20E+0x444>
    8100:	8b0c026d 	add	x13, x19, x12
    8104:	f90113ff 	str	xzr, [sp, #544]
    8108:	f9010fed 	str	x13, [sp, #536]
    810c:	2a1f03ea 	mov	w10, wzr
    8110:	2a1f03e8 	mov	w8, wzr
    8114:	2a1f03e9 	mov	w9, wzr
    8118:	52800279 	mov	w25, #0x13                  	// #19
    811c:	aa0d03f6 	mov	x22, x13
    8120:	14000005 	b	8134 <_ZN4core4cell4once17OnceCell$LT$T$GT$8try_init17h6577ec651d954e20E+0x10e0>
    8124:	2a1f03ea 	mov	w10, wzr
    8128:	2a1f03e8 	mov	w8, wzr
    812c:	2a1f03e9 	mov	w9, wzr
    8130:	528000d9 	mov	w25, #0x6                   	// #6
    8134:	53103d29 	lsl	w9, w9, #16
    8138:	b3781d59 	bfi	x25, x10, #8, #8
    813c:	f94023fc 	ldr	x28, [sp, #64]
    8140:	f90113ff 	str	xzr, [sp, #544]
    8144:	aa088128 	orr	x8, x9, x8, lsl #32
    8148:	52800029 	mov	w9, #0x1                   	// #1
    814c:	f9010fe9 	str	x9, [sp, #536]
    8150:	aa190117 	orr	x23, x8, x25
    8154:	f94093e8 	ldr	x8, [sp, #288]
    8158:	b40000a8 	cbz	x8, 816c <_ZN4core4cell4once17OnceCell$LT$T$GT$8try_init17h6577ec651d954e20E+0x1118>
    815c:	f94097e0 	ldr	x0, [sp, #296]
    8160:	d37ef501 	lsl	x1, x8, #2
    8164:	52800042 	mov	w2, #0x2                   	// #2
    8168:	94000742 	bl	9e70 <_RNvCsiGVaDesi5rv_7___rustc14___rust_dealloc>
    816c:	f9409fe8 	ldr	x8, [sp, #312]
    8170:	b40000c8 	cbz	x8, 8188 <_ZN4core4cell4once17OnceCell$LT$T$GT$8try_init17h6577ec651d954e20E+0x1134>
    8174:	8b080508 	add	x8, x8, x8, lsl #1
    8178:	f940a3e0 	ldr	x0, [sp, #320]
    817c:	52800102 	mov	w2, #0x8                   	// #8
    8180:	d37df101 	lsl	x1, x8, #3
    8184:	9400073b 	bl	9e70 <_RNvCsiGVaDesi5rv_7___rustc14___rust_dealloc>
    8188:	f940abe8 	ldr	x8, [sp, #336]
    818c:	b40000a8 	cbz	x8, 81a0 <_ZN4core4cell4once17OnceCell$LT$T$GT$8try_init17h6577ec651d954e20E+0x114c>
    8190:	f940afe0 	ldr	x0, [sp, #344]
    8194:	d37ef501 	lsl	x1, x8, #2
    8198:	52800042 	mov	w2, #0x2                   	// #2
    819c:	94000735 	bl	9e70 <_RNvCsiGVaDesi5rv_7___rustc14___rust_dealloc>
    81a0:	f940b7e8 	ldr	x8, [sp, #360]
    81a4:	b40000c8 	cbz	x8, 81bc <_ZN4core4cell4once17OnceCell$LT$T$GT$8try_init17h6577ec651d954e20E+0x1168>
    81a8:	52800b09 	mov	w9, #0x58                  	// #88
    81ac:	f940bbe0 	ldr	x0, [sp, #368]
    81b0:	52800102 	mov	w2, #0x8                   	// #8
    81b4:	9b097d01 	mul	x1, x8, x9
    81b8:	9400072e 	bl	9e70 <_RNvCsiGVaDesi5rv_7___rustc14___rust_dealloc>
    81bc:	f9405be8 	ldr	x8, [sp, #176]
    81c0:	b40000c8 	cbz	x8, 81d8 <_ZN4core4cell4once17OnceCell$LT$T$GT$8try_init17h6577ec651d954e20E+0x1184>
    81c4:	8b080508 	add	x8, x8, x8, lsl #1
    81c8:	f9405fe0 	ldr	x0, [sp, #184]
    81cc:	52800102 	mov	w2, #0x8                   	// #8
    81d0:	d37df101 	lsl	x1, x8, #3
    81d4:	94000727 	bl	9e70 <_RNvCsiGVaDesi5rv_7___rustc14___rust_dealloc>
    81d8:	a94a4ff4 	ldp	x20, x19, [sp, #160]
    81dc:	b40001d3 	cbz	x19, 8214 <_ZN4core4cell4once17OnceCell$LT$T$GT$8try_init17h6577ec651d954e20E+0x11c0>
    81e0:	91002295 	add	x21, x20, #0x8
    81e4:	14000004 	b	81f4 <_ZN4core4cell4once17OnceCell$LT$T$GT$8try_init17h6577ec651d954e20E+0x11a0>
    81e8:	f1000673 	subs	x19, x19, #0x1
    81ec:	910082b5 	add	x21, x21, #0x20
    81f0:	54000120 	b.eq	8214 <_ZN4core4cell4once17OnceCell$LT$T$GT$8try_init17h6577ec651d954e20E+0x11c0>  // b.none
    81f4:	f94002a8 	ldr	x8, [x21]
    81f8:	b4ffff88 	cbz	x8, 81e8 <_ZN4core4cell4once17OnceCell$LT$T$GT$8try_init17h6577ec651d954e20E+0x1194>
    81fc:	8b080508 	add	x8, x8, x8, lsl #1
    8200:	f85f82a0 	ldur	x0, [x21, #-8]
    8204:	52800102 	mov	w2, #0x8                   	// #8
    8208:	d37df101 	lsl	x1, x8, #3
    820c:	94000719 	bl	9e70 <_RNvCsiGVaDesi5rv_7___rustc14___rust_dealloc>
    8210:	17fffff6 	b	81e8 <_ZN4core4cell4once17OnceCell$LT$T$GT$8try_init17h6577ec651d954e20E+0x1194>
    8214:	f9404fe8 	ldr	x8, [sp, #152]
    8218:	b40000a8 	cbz	x8, 822c <_ZN4core4cell4once17OnceCell$LT$T$GT$8try_init17h6577ec651d954e20E+0x11d8>
    821c:	d37be901 	lsl	x1, x8, #5
    8220:	aa1403e0 	mov	x0, x20
    8224:	52800102 	mov	w2, #0x8                   	// #8
    8228:	94000712 	bl	9e70 <_RNvCsiGVaDesi5rv_7___rustc14___rust_dealloc>
    822c:	aa1f03f4 	mov	x20, xzr
    8230:	b9400388 	ldr	w8, [x28]
    8234:	7100051f 	cmp	w8, #0x1
    8238:	54003200 	b.eq	8878 <_ZN4core4cell4once17OnceCell$LT$T$GT$8try_init17h6577ec651d954e20E+0x1824>  // b.none
    823c:	52800028 	mov	w8, #0x1                   	// #1
    8240:	aa1c03e0 	mov	x0, x28
    8244:	a9015b97 	stp	x23, x22, [x28, #16]
    8248:	f9000388 	str	x8, [x28]
    824c:	f8008c14 	str	x20, [x0, #8]!
    8250:	f9001393 	str	x19, [x28, #32]
    8254:	9109c3ff 	add	sp, sp, #0x270
    8258:	a9454ff4 	ldp	x20, x19, [sp, #80]
    825c:	a94457f6 	ldp	x22, x21, [sp, #64]
    8260:	a9435ff8 	ldp	x24, x23, [sp, #48]
    8264:	a94267fa 	ldp	x26, x25, [sp, #32]
    8268:	a9416ffc 	ldp	x28, x27, [sp, #16]
    826c:	a8c67bfd 	ldp	x29, x30, [sp], #96
    8270:	d65f03c0 	ret
    8274:	f94057e1 	ldr	x1, [sp, #168]
    8278:	f100083f 	cmp	x1, #0x2
    827c:	54002f02 	b.cs	885c <_ZN4core4cell4once17OnceCell$LT$T$GT$8try_init17h6577ec651d954e20E+0x1808>  // b.hs, b.nlast
    8280:	794397e8 	ldrh	w8, [sp, #458]
    8284:	f94023fc 	ldr	x28, [sp, #64]
    8288:	52800109 	mov	w9, #0x8                   	// #8
    828c:	f9404bf9 	ldr	x25, [sp, #144]
    8290:	a93ba7bf 	stp	xzr, x9, [x29, #-72]
    8294:	7100151f 	cmp	w8, #0x5
    8298:	f81c83bf 	stur	xzr, [x29, #-56]
    829c:	540000c2 	b.cs	82b4 <_ZN4core4cell4once17OnceCell$LT$T$GT$8try_init17h6577ec651d954e20E+0x1260>  // b.hs, b.nlast
    82a0:	f94067e8 	ldr	x8, [sp, #200]
    82a4:	f100b91f 	cmp	x8, #0x2e
    82a8:	54000240 	b.eq	82f0 <_ZN4core4cell4once17OnceCell$LT$T$GT$8try_init17h6577ec651d954e20E+0x129c>  // b.none
    82ac:	910323e3 	add	x3, sp, #0xc8
    82b0:	14000004 	b	82c0 <_ZN4core4cell4once17OnceCell$LT$T$GT$8try_init17h6577ec651d954e20E+0x126c>
    82b4:	f940bfe8 	ldr	x8, [sp, #376]
    82b8:	b40001c8 	cbz	x8, 82f0 <_ZN4core4cell4once17OnceCell$LT$T$GT$8try_init17h6577ec651d954e20E+0x129c>
    82bc:	f940bbe3 	ldr	x3, [sp, #368]
    82c0:	f9401fe2 	ldr	x2, [sp, #56]
    82c4:	d100c3a0 	sub	x0, x29, #0x30
    82c8:	910323e4 	add	x4, sp, #0xc8
    82cc:	aa1903e1 	mov	x1, x25
    82d0:	94008ff5 	bl	2c2a4 <_ZN9addr2line4line11render_file17h525362569e4345c0E>
    82d4:	a97d63b7 	ldp	x23, x24, [x29, #-48]
    82d8:	d2f00008 	mov	x8, #0x8000000000000000    	// #-9223372036854775808
    82dc:	f85e03b6 	ldur	x22, [x29, #-32]
    82e0:	eb0802ff 	cmp	x23, x8
    82e4:	54000261 	b.ne	8330 <_ZN4core4cell4once17OnceCell$LT$T$GT$8try_init17h6577ec651d954e20E+0x12dc>  // b.any
    82e8:	52800114 	mov	w20, #0x8                   	// #8
    82ec:	14000057 	b	8448 <_ZN4core4cell4once17OnceCell$LT$T$GT$8try_init17h6577ec651d954e20E+0x13f4>
    82f0:	d10123a0 	sub	x0, x29, #0x48
    82f4:	94000285 	bl	8d08 <_ZN5alloc7raw_vec19RawVec$LT$T$C$A$GT$8grow_one17h235a7742b0bc8973E>
    82f8:	aa1f03f7 	mov	x23, xzr
    82fc:	aa1f03f6 	mov	x22, xzr
    8300:	52800038 	mov	w24, #0x1                   	// #1
    8304:	1400000d 	b	8338 <_ZN4core4cell4once17OnceCell$LT$T$GT$8try_init17h6577ec651d954e20E+0x12e4>
    8308:	a940c6ef 	ldp	x15, x17, [x23, #8]
    830c:	d348fdee 	lsr	x14, x15, #8
    8310:	d350fdf0 	lsr	x16, x15, #16
    8314:	92607ded 	and	x13, x15, #0xffffffff00000000
    8318:	f9400ef2 	ldr	x18, [x23, #24]
    831c:	3dc00ee0 	ldr	q0, [x23, #48]
    8320:	f94022e0 	ldr	x0, [x23, #64]
    8324:	f100ba5f 	cmp	x18, #0x2e
    8328:	54ff81a0 	b.eq	735c <_ZN4core4cell4once17OnceCell$LT$T$GT$8try_init17h6577ec651d954e20E+0x308>  // b.none
    832c:	17fffbf9 	b	7310 <_ZN4core4cell4once17OnceCell$LT$T$GT$8try_init17h6577ec651d954e20E+0x2bc>
    8330:	d10123a0 	sub	x0, x29, #0x48
    8334:	94000275 	bl	8d08 <_ZN5alloc7raw_vec19RawVec$LT$T$C$A$GT$8grow_one17h235a7742b0bc8973E>
    8338:	f85c03b5 	ldur	x21, [x29, #-64]
    833c:	aa1f03f4 	mov	x20, xzr
    8340:	aa1f03f3 	mov	x19, xzr
    8344:	d2f0001a 	mov	x26, #0x8000000000000000    	// #-9223372036854775808
    8348:	52800b1b 	mov	w27, #0x58                  	// #88
    834c:	a90062b7 	stp	x23, x24, [x21]
    8350:	52800037 	mov	w23, #0x1                   	// #1
    8354:	f9000ab6 	str	x22, [x21, #16]
    8358:	f81c83b7 	stur	x23, [x29, #-56]
    835c:	1400000a 	b	8384 <_ZN4core4cell4once17OnceCell$LT$T$GT$8try_init17h6577ec651d954e20E+0x1330>
    8360:	f85c03b5 	ldur	x21, [x29, #-64]
    8364:	8b1302a8 	add	x8, x21, x19
    8368:	910006f7 	add	x23, x23, #0x1
    836c:	91006273 	add	x19, x19, #0x18
    8370:	a901e119 	stp	x25, x24, [x8, #24]
    8374:	f9404bf9 	ldr	x25, [sp, #144]
    8378:	91016294 	add	x20, x20, #0x58
    837c:	f9001516 	str	x22, [x8, #40]
    8380:	f81c83b7 	stur	x23, [x29, #-56]
    8384:	794397e8 	ldrh	w8, [sp, #458]
    8388:	7100151f 	cmp	w8, #0x5
    838c:	54000122 	b.cs	83b0 <_ZN4core4cell4once17OnceCell$LT$T$GT$8try_init17h6577ec651d954e20E+0x135c>  // b.hs, b.nlast
    8390:	b40001d7 	cbz	x23, 83c8 <_ZN4core4cell4once17OnceCell$LT$T$GT$8try_init17h6577ec651d954e20E+0x1374>
    8394:	f940bfe8 	ldr	x8, [sp, #376]
    8398:	d10006e9 	sub	x9, x23, #0x1
    839c:	eb08013f 	cmp	x9, x8
    83a0:	54000662 	b.cs	846c <_ZN4core4cell4once17OnceCell$LT$T$GT$8try_init17h6577ec651d954e20E+0x1418>  // b.hs, b.nlast
    83a4:	f940bbe8 	ldr	x8, [sp, #368]
    83a8:	8b140103 	add	x3, x8, x20
    83ac:	1400000b 	b	83d8 <_ZN4core4cell4once17OnceCell$LT$T$GT$8try_init17h6577ec651d954e20E+0x1384>
    83b0:	f940bfe8 	ldr	x8, [sp, #376]
    83b4:	eb0802ff 	cmp	x23, x8
    83b8:	540005a2 	b.cs	846c <_ZN4core4cell4once17OnceCell$LT$T$GT$8try_init17h6577ec651d954e20E+0x1418>  // b.hs, b.nlast
    83bc:	f940bbe8 	ldr	x8, [sp, #368]
    83c0:	9b1b22e3 	madd	x3, x23, x27, x8
    83c4:	14000005 	b	83d8 <_ZN4core4cell4once17OnceCell$LT$T$GT$8try_init17h6577ec651d954e20E+0x1384>
    83c8:	f94067e8 	ldr	x8, [sp, #200]
    83cc:	f100b91f 	cmp	x8, #0x2e
    83d0:	54001760 	b.eq	86bc <_ZN4core4cell4once17OnceCell$LT$T$GT$8try_init17h6577ec651d954e20E+0x1668>  // b.none
    83d4:	910323e3 	add	x3, sp, #0xc8
    83d8:	f9401fe2 	ldr	x2, [sp, #56]
    83dc:	d100c3a0 	sub	x0, x29, #0x30
    83e0:	910323e4 	add	x4, sp, #0xc8
    83e4:	aa1903e1 	mov	x1, x25
    83e8:	94008faf 	bl	2c2a4 <_ZN9addr2line4line11render_file17h525362569e4345c0E>
    83ec:	a97d63b9 	ldp	x25, x24, [x29, #-48]
    83f0:	f85e03b6 	ldur	x22, [x29, #-32]
    83f4:	eb1a033f 	cmp	x25, x26
    83f8:	540000e0 	b.eq	8414 <_ZN4core4cell4once17OnceCell$LT$T$GT$8try_init17h6577ec651d954e20E+0x13c0>  // b.none
    83fc:	f85b83a8 	ldur	x8, [x29, #-72]
    8400:	eb0802ff 	cmp	x23, x8
    8404:	54fffb01 	b.ne	8364 <_ZN4core4cell4once17OnceCell$LT$T$GT$8try_init17h6577ec651d954e20E+0x1310>  // b.any
    8408:	d10123a0 	sub	x0, x29, #0x48
    840c:	9400023f 	bl	8d08 <_ZN5alloc7raw_vec19RawVec$LT$T$C$A$GT$8grow_one17h235a7742b0bc8973E>
    8410:	17ffffd4 	b	8360 <_ZN4core4cell4once17OnceCell$LT$T$GT$8try_init17h6577ec651d954e20E+0x130c>
    8414:	f85c03b4 	ldur	x20, [x29, #-64]
    8418:	b4000197 	cbz	x23, 8448 <_ZN4core4cell4once17OnceCell$LT$T$GT$8try_init17h6577ec651d954e20E+0x13f4>
    841c:	91002293 	add	x19, x20, #0x8
    8420:	14000004 	b	8430 <_ZN4core4cell4once17OnceCell$LT$T$GT$8try_init17h6577ec651d954e20E+0x13dc>
    8424:	f10006f7 	subs	x23, x23, #0x1
    8428:	91006273 	add	x19, x19, #0x18
    842c:	540000e0 	b.eq	8448 <_ZN4core4cell4once17OnceCell$LT$T$GT$8try_init17h6577ec651d954e20E+0x13f4>  // b.none
    8430:	f85f8261 	ldur	x1, [x19, #-8]
    8434:	b4ffff81 	cbz	x1, 8424 <_ZN4core4cell4once17OnceCell$LT$T$GT$8try_init17h6577ec651d954e20E+0x13d0>
    8438:	f9400260 	ldr	x0, [x19]
    843c:	52800022 	mov	w2, #0x1                   	// #1
    8440:	9400068c 	bl	9e70 <_RNvCsiGVaDesi5rv_7___rustc14___rust_dealloc>
    8444:	17fffff8 	b	8424 <_ZN4core4cell4once17OnceCell$LT$T$GT$8try_init17h6577ec651d954e20E+0x13d0>
    8448:	f85b83a8 	ldur	x8, [x29, #-72]
    844c:	b40000c8 	cbz	x8, 8464 <_ZN4core4cell4once17OnceCell$LT$T$GT$8try_init17h6577ec651d954e20E+0x1410>
    8450:	8b080508 	add	x8, x8, x8, lsl #1
    8454:	aa1403e0 	mov	x0, x20
    8458:	52800102 	mov	w2, #0x8                   	// #8
    845c:	d37df101 	lsl	x1, x8, #3
    8460:	94000684 	bl	9e70 <_RNvCsiGVaDesi5rv_7___rustc14___rust_dealloc>
    8464:	aa1803f7 	mov	x23, x24
    8468:	17ffff3b 	b	8154 <_ZN4core4cell4once17OnceCell$LT$T$GT$8try_init17h6577ec651d954e20E+0x1100>
    846c:	a97bd3a8 	ldp	x8, x20, [x29, #-72]
    8470:	eb17011f 	cmp	x8, x23
    8474:	54001349 	b.ls	86dc <_ZN4core4cell4once17OnceCell$LT$T$GT$8try_init17h6577ec651d954e20E+0x1688>  // b.plast
    8478:	8b080508 	add	x8, x8, x8, lsl #1
    847c:	d37df101 	lsl	x1, x8, #3
    8480:	b4001277 	cbz	x23, 86cc <_ZN4core4cell4once17OnceCell$LT$T$GT$8try_init17h6577ec651d954e20E+0x1678>
    8484:	91006263 	add	x3, x19, #0x18
    8488:	aa1403e0 	mov	x0, x20
    848c:	52800102 	mov	w2, #0x8                   	// #8
    8490:	94000679 	bl	9e74 <_RNvCsiGVaDesi5rv_7___rustc14___rust_realloc>
    8494:	aa0003f4 	mov	x20, x0
    8498:	b5001220 	cbnz	x0, 86dc <_ZN4core4cell4once17OnceCell$LT$T$GT$8try_init17h6577ec651d954e20E+0x1688>
    849c:	91006261 	add	x1, x19, #0x18
    84a0:	52800100 	mov	w0, #0x8                   	// #8
    84a4:	94000375 	bl	9278 <_ZN5alloc7raw_vec12handle_error17hbfb8377505525b80E>
    84a8:	14000115 	b	88fc <_ZN4core4cell4once17OnceCell$LT$T$GT$8try_init17h6577ec651d954e20E+0x18a8>
    84ac:	794012ef 	ldrh	w15, [x23, #8]
    84b0:	2a1f03f0 	mov	w16, wzr
    84b4:	aa1f03ed 	mov	x13, xzr
    84b8:	53087dee 	lsr	w14, w15, #8
    84bc:	f9400ef2 	ldr	x18, [x23, #24]
    84c0:	3dc00ee0 	ldr	q0, [x23, #48]
    84c4:	f94022e0 	ldr	x0, [x23, #64]
    84c8:	f100ba5f 	cmp	x18, #0x2e
    84cc:	54ff7480 	b.eq	735c <_ZN4core4cell4once17OnceCell$LT$T$GT$8try_init17h6577ec651d954e20E+0x308>  // b.none
    84d0:	17fffb90 	b	7310 <_ZN4core4cell4once17OnceCell$LT$T$GT$8try_init17h6577ec651d954e20E+0x2bc>
    84d4:	8b0a02a8 	add	x8, x21, x10
    84d8:	8b080268 	add	x8, x19, x8
    84dc:	91000916 	add	x22, x8, #0x2
    84e0:	2a1f03ea 	mov	w10, wzr
    84e4:	2a1f03e8 	mov	w8, wzr
    84e8:	2a1f03e9 	mov	w9, wzr
    84ec:	14000031 	b	85b0 <_ZN4core4cell4once17OnceCell$LT$T$GT$8try_init17h6577ec651d954e20E+0x155c>
    84f0:	f94033f6 	ldr	x22, [sp, #96]
    84f4:	2a1f03ea 	mov	w10, wzr
    84f8:	2a1f03e8 	mov	w8, wzr
    84fc:	2a1f03e9 	mov	w9, wzr
    8500:	528000d9 	mov	w25, #0x6                   	// #6
    8504:	17ffff0c 	b	8134 <_ZN4core4cell4once17OnceCell$LT$T$GT$8try_init17h6577ec651d954e20E+0x10e0>
    8508:	f9402ff6 	ldr	x22, [sp, #88]
    850c:	2a1f03ea 	mov	w10, wzr
    8510:	2a1f03e8 	mov	w8, wzr
    8514:	2a1f03e9 	mov	w9, wzr
    8518:	528000d9 	mov	w25, #0x6                   	// #6
    851c:	17ffff06 	b	8134 <_ZN4core4cell4once17OnceCell$LT$T$GT$8try_init17h6577ec651d954e20E+0x10e0>
    8520:	f94037f6 	ldr	x22, [sp, #104]
    8524:	2a1f03ea 	mov	w10, wzr
    8528:	2a1f03e8 	mov	w8, wzr
    852c:	2a1f03e9 	mov	w9, wzr
    8530:	528000d9 	mov	w25, #0x6                   	// #6
    8534:	17ffff00 	b	8134 <_ZN4core4cell4once17OnceCell$LT$T$GT$8try_init17h6577ec651d954e20E+0x10e0>
    8538:	cb0d03ec 	neg	x12, x13
    853c:	f9403bf6 	ldr	x22, [sp, #112]
    8540:	2a1f03ea 	mov	w10, wzr
    8544:	2a1f03e8 	mov	w8, wzr
    8548:	2a1f03e9 	mov	w9, wzr
    854c:	f9010feb 	str	x11, [sp, #536]
    8550:	f90113ec 	str	x12, [sp, #544]
    8554:	528000d9 	mov	w25, #0x6                   	// #6
    8558:	17fffef7 	b	8134 <_ZN4core4cell4once17OnceCell$LT$T$GT$8try_init17h6577ec651d954e20E+0x10e0>
    855c:	f9402bf6 	ldr	x22, [sp, #80]
    8560:	2a1f03ea 	mov	w10, wzr
    8564:	2a1f03e8 	mov	w8, wzr
    8568:	2a1f03e9 	mov	w9, wzr
    856c:	528000d9 	mov	w25, #0x6                   	// #6
    8570:	17fffef1 	b	8134 <_ZN4core4cell4once17OnceCell$LT$T$GT$8try_init17h6577ec651d954e20E+0x10e0>
    8574:	2a1f03ea 	mov	w10, wzr
    8578:	2a1f03e8 	mov	w8, wzr
    857c:	2a1f03e9 	mov	w9, wzr
    8580:	910009b6 	add	x22, x13, #0x2
    8584:	1400000b 	b	85b0 <_ZN4core4cell4once17OnceCell$LT$T$GT$8try_init17h6577ec651d954e20E+0x155c>
    8588:	a94216e3 	ldp	x3, x5, [x23, #32]
    858c:	d348fc62 	lsr	x2, x3, #8
    8590:	d350fc64 	lsr	x4, x3, #16
    8594:	92607c61 	and	x1, x3, #0xffffffff00000000
    8598:	17fffb6d 	b	734c <_ZN4core4cell4once17OnceCell$LT$T$GT$8try_init17h6577ec651d954e20E+0x2f8>
    859c:	8b15026b 	add	x11, x19, x21
    85a0:	2a1f03ea 	mov	w10, wzr
    85a4:	2a1f03e8 	mov	w8, wzr
    85a8:	2a1f03e9 	mov	w9, wzr
    85ac:	91000d76 	add	x22, x11, #0x3
    85b0:	52800279 	mov	w25, #0x13                  	// #19
    85b4:	17fffee0 	b	8134 <_ZN4core4cell4once17OnceCell$LT$T$GT$8try_init17h6577ec651d954e20E+0x10e0>
    85b8:	910323e8 	add	x8, sp, #0xc8
    85bc:	92781d49 	and	x9, x10, #0xff00
    85c0:	5280068a 	mov	w10, #0x34                  	// #52
    85c4:	f94023fc 	ldr	x28, [sp, #64]
    85c8:	9270bd08 	and	x8, x8, #0xffffffffffff0000
    85cc:	aa0a0129 	orr	x9, x9, x10
    85d0:	aa090117 	orr	x23, x8, x9
    85d4:	aa0c03f6 	mov	x22, x12
    85d8:	17fffedf 	b	8154 <_ZN4core4cell4once17OnceCell$LT$T$GT$8try_init17h6577ec651d954e20E+0x1100>
    85dc:	f94006ef 	ldr	x15, [x23, #8]
    85e0:	d348fdee 	lsr	x14, x15, #8
    85e4:	d350fdf0 	lsr	x16, x15, #16
    85e8:	92607ded 	and	x13, x15, #0xffffffff00000000
    85ec:	f9400ef2 	ldr	x18, [x23, #24]
    85f0:	3dc00ee0 	ldr	q0, [x23, #48]
    85f4:	f94022e0 	ldr	x0, [x23, #64]
    85f8:	f100ba5f 	cmp	x18, #0x2e
    85fc:	54ff6b00 	b.eq	735c <_ZN4core4cell4once17OnceCell$LT$T$GT$8try_init17h6577ec651d954e20E+0x308>  // b.none
    8600:	17fffb44 	b	7310 <_ZN4core4cell4once17OnceCell$LT$T$GT$8try_init17h6577ec651d954e20E+0x2bc>
    8604:	794042e3 	ldrh	w3, [x23, #32]
    8608:	2a1f03e4 	mov	w4, wzr
    860c:	aa1f03e1 	mov	x1, xzr
    8610:	53087c62 	lsr	w2, w3, #8
    8614:	17fffb4e 	b	734c <_ZN4core4cell4once17OnceCell$LT$T$GT$8try_init17h6577ec651d954e20E+0x2f8>
    8618:	b9400aef 	ldr	w15, [x23, #8]
    861c:	aa1f03ed 	mov	x13, xzr
    8620:	53087dee 	lsr	w14, w15, #8
    8624:	53107df0 	lsr	w16, w15, #16
    8628:	f9400ef2 	ldr	x18, [x23, #24]
    862c:	3dc00ee0 	ldr	q0, [x23, #48]
    8630:	f94022e0 	ldr	x0, [x23, #64]
    8634:	f100ba5f 	cmp	x18, #0x2e
    8638:	54ff6920 	b.eq	735c <_ZN4core4cell4once17OnceCell$LT$T$GT$8try_init17h6577ec651d954e20E+0x308>  // b.none
    863c:	17fffb35 	b	7310 <_ZN4core4cell4once17OnceCell$LT$T$GT$8try_init17h6577ec651d954e20E+0x2bc>
    8640:	2a1f03ea 	mov	w10, wzr
    8644:	2a1f03e8 	mov	w8, wzr
    8648:	2a1f03e9 	mov	w9, wzr
    864c:	528000d9 	mov	w25, #0x6                   	// #6
    8650:	aa0603f6 	mov	x22, x6
    8654:	17fffeb8 	b	8134 <_ZN4core4cell4once17OnceCell$LT$T$GT$8try_init17h6577ec651d954e20E+0x10e0>
    8658:	8b11018c 	add	x12, x12, x17
    865c:	f90113ff 	str	xzr, [sp, #544]
    8660:	f9010fec 	str	x12, [sp, #536]
    8664:	2a1f03ea 	mov	w10, wzr
    8668:	2a1f03e8 	mov	w8, wzr
    866c:	2a1f03e9 	mov	w9, wzr
    8670:	52800279 	mov	w25, #0x13                  	// #19
    8674:	aa0c03f6 	mov	x22, x12
    8678:	17fffeaf 	b	8134 <_ZN4core4cell4once17OnceCell$LT$T$GT$8try_init17h6577ec651d954e20E+0x10e0>
    867c:	f9401bf6 	ldr	x22, [sp, #48]
    8680:	2a1f03ea 	mov	w10, wzr
    8684:	2a1f03e8 	mov	w8, wzr
    8688:	2a1f03e9 	mov	w9, wzr
    868c:	528000d9 	mov	w25, #0x6                   	// #6
    8690:	17fffea9 	b	8134 <_ZN4core4cell4once17OnceCell$LT$T$GT$8try_init17h6577ec651d954e20E+0x10e0>
    8694:	f94012e3 	ldr	x3, [x23, #32]
    8698:	d348fc62 	lsr	x2, x3, #8
    869c:	d350fc64 	lsr	x4, x3, #16
    86a0:	92607c61 	and	x1, x3, #0xffffffff00000000
    86a4:	17fffb2a 	b	734c <_ZN4core4cell4once17OnceCell$LT$T$GT$8try_init17h6577ec651d954e20E+0x2f8>
    86a8:	b94022e3 	ldr	w3, [x23, #32]
    86ac:	aa1f03e1 	mov	x1, xzr
    86b0:	53087c62 	lsr	w2, w3, #8
    86b4:	53107c64 	lsr	w4, w3, #16
    86b8:	17fffb25 	b	734c <_ZN4core4cell4once17OnceCell$LT$T$GT$8try_init17h6577ec651d954e20E+0x2f8>
    86bc:	a97bd3a8 	ldp	x8, x20, [x29, #-72]
    86c0:	b40000e8 	cbz	x8, 86dc <_ZN4core4cell4once17OnceCell$LT$T$GT$8try_init17h6577ec651d954e20E+0x1688>
    86c4:	8b080508 	add	x8, x8, x8, lsl #1
    86c8:	d37df101 	lsl	x1, x8, #3
    86cc:	aa1403e0 	mov	x0, x20
    86d0:	52800102 	mov	w2, #0x8                   	// #8
    86d4:	940005e7 	bl	9e70 <_RNvCsiGVaDesi5rv_7___rustc14___rust_dealloc>
    86d8:	52800114 	mov	w20, #0x8                   	// #8
    86dc:	a94a4ff6 	ldp	x22, x19, [sp, #160]
    86e0:	f9404fe8 	ldr	x8, [sp, #152]
    86e4:	eb13011f 	cmp	x8, x19
    86e8:	54000249 	b.ls	8730 <_ZN4core4cell4once17OnceCell$LT$T$GT$8try_init17h6577ec651d954e20E+0x16dc>  // b.plast
    86ec:	d37be901 	lsl	x1, x8, #5
    86f0:	b4000193 	cbz	x19, 8720 <_ZN4core4cell4once17OnceCell$LT$T$GT$8try_init17h6577ec651d954e20E+0x16cc>
    86f4:	d37bea75 	lsl	x21, x19, #5
    86f8:	aa1603e0 	mov	x0, x22
    86fc:	52800102 	mov	w2, #0x8                   	// #8
    8700:	aa1503e3 	mov	x3, x21
    8704:	940005dc 	bl	9e74 <_RNvCsiGVaDesi5rv_7___rustc14___rust_realloc>
    8708:	aa0003f6 	mov	x22, x0
    870c:	b5000120 	cbnz	x0, 8730 <_ZN4core4cell4once17OnceCell$LT$T$GT$8try_init17h6577ec651d954e20E+0x16dc>
    8710:	52800100 	mov	w0, #0x8                   	// #8
    8714:	aa1503e1 	mov	x1, x21
    8718:	940002d8 	bl	9278 <_ZN5alloc7raw_vec12handle_error17hbfb8377505525b80E>
    871c:	14000078 	b	88fc <_ZN4core4cell4once17OnceCell$LT$T$GT$8try_init17h6577ec651d954e20E+0x18a8>
    8720:	aa1603e0 	mov	x0, x22
    8724:	52800102 	mov	w2, #0x8                   	// #8
    8728:	940005d2 	bl	9e70 <_RNvCsiGVaDesi5rv_7___rustc14___rust_dealloc>
    872c:	52800116 	mov	w22, #0x8                   	// #8
    8730:	f94093e8 	ldr	x8, [sp, #288]
    8734:	b40000a8 	cbz	x8, 8748 <_ZN4core4cell4once17OnceCell$LT$T$GT$8try_init17h6577ec651d954e20E+0x16f4>
    8738:	f94097e0 	ldr	x0, [sp, #296]
    873c:	d37ef501 	lsl	x1, x8, #2
    8740:	52800042 	mov	w2, #0x2                   	// #2
    8744:	940005cb 	bl	9e70 <_RNvCsiGVaDesi5rv_7___rustc14___rust_dealloc>
    8748:	f9409fe8 	ldr	x8, [sp, #312]
    874c:	b40000c8 	cbz	x8, 8764 <_ZN4core4cell4once17OnceCell$LT$T$GT$8try_init17h6577ec651d954e20E+0x1710>
    8750:	8b080508 	add	x8, x8, x8, lsl #1
    8754:	f940a3e0 	ldr	x0, [sp, #320]
    8758:	52800102 	mov	w2, #0x8                   	// #8
    875c:	d37df101 	lsl	x1, x8, #3
    8760:	940005c4 	bl	9e70 <_RNvCsiGVaDesi5rv_7___rustc14___rust_dealloc>
    8764:	f940abe8 	ldr	x8, [sp, #336]
    8768:	b40000a8 	cbz	x8, 877c <_ZN4core4cell4once17OnceCell$LT$T$GT$8try_init17h6577ec651d954e20E+0x1728>
    876c:	f940afe0 	ldr	x0, [sp, #344]
    8770:	d37ef501 	lsl	x1, x8, #2
    8774:	52800042 	mov	w2, #0x2                   	// #2
    8778:	940005be 	bl	9e70 <_RNvCsiGVaDesi5rv_7___rustc14___rust_dealloc>
    877c:	f940b7e8 	ldr	x8, [sp, #360]
    8780:	b40000c8 	cbz	x8, 8798 <_ZN4core4cell4once17OnceCell$LT$T$GT$8try_init17h6577ec651d954e20E+0x1744>
    8784:	52800b09 	mov	w9, #0x58                  	// #88
    8788:	f940bbe0 	ldr	x0, [sp, #368]
    878c:	52800102 	mov	w2, #0x8                   	// #8
    8790:	9b097d01 	mul	x1, x8, x9
    8794:	940005b7 	bl	9e70 <_RNvCsiGVaDesi5rv_7___rustc14___rust_dealloc>
    8798:	f9405be8 	ldr	x8, [sp, #176]
    879c:	b4ffd4a8 	cbz	x8, 8230 <_ZN4core4cell4once17OnceCell$LT$T$GT$8try_init17h6577ec651d954e20E+0x11dc>
    87a0:	8b080508 	add	x8, x8, x8, lsl #1
    87a4:	f9405fe0 	ldr	x0, [sp, #184]
    87a8:	52800102 	mov	w2, #0x8                   	// #8
    87ac:	d37df101 	lsl	x1, x8, #3
    87b0:	940005b0 	bl	9e70 <_RNvCsiGVaDesi5rv_7___rustc14___rust_dealloc>
    87b4:	17fffe9f 	b	8230 <_ZN4core4cell4once17OnceCell$LT$T$GT$8try_init17h6577ec651d954e20E+0x11dc>
    87b8:	785d63a9 	ldurh	w9, [x29, #-42]
    87bc:	b840236b 	ldur	w11, [x27, #2]
    87c0:	aa0803f9 	mov	x25, x8
    87c4:	385d13aa 	ldurb	w10, [x29, #-47]
    87c8:	f85d83b6 	ldur	x22, [x29, #-40]
    87cc:	aa098169 	orr	x9, x11, x9, lsl #32
    87d0:	d350fd29 	lsr	x9, x9, #16
    87d4:	2a0903e8 	mov	w8, w9
    87d8:	2a0b03e9 	mov	w9, w11
    87dc:	17fffe56 	b	8134 <_ZN4core4cell4once17OnceCell$LT$T$GT$8try_init17h6577ec651d954e20E+0x10e0>
    87e0:	52800279 	mov	w25, #0x13                  	// #19
    87e4:	2a0b03ea 	mov	w10, w11
    87e8:	aa0f03f6 	mov	x22, x15
    87ec:	17fffe52 	b	8134 <_ZN4core4cell4once17OnceCell$LT$T$GT$8try_init17h6577ec651d954e20E+0x10e0>
    87f0:	781d03bf 	sturh	wzr, [x29, #-48]
    87f4:	2a1f03ea 	mov	w10, wzr
    87f8:	2a1f03e8 	mov	w8, wzr
    87fc:	b800237f 	stur	wzr, [x27, #2]
    8800:	78401369 	ldurh	w9, [x27, #1]
    8804:	17fffe45 	b	8118 <_ZN4core4cell4once17OnceCell$LT$T$GT$8try_init17h6577ec651d954e20E+0x10c4>
    8808:	2a1f03ea 	mov	w10, wzr
    880c:	2a1f03e8 	mov	w8, wzr
    8810:	2a1f03e9 	mov	w9, wzr
    8814:	52800279 	mov	w25, #0x13                  	// #19
    8818:	aa0f03f6 	mov	x22, x15
    881c:	17fffe46 	b	8134 <_ZN4core4cell4once17OnceCell$LT$T$GT$8try_init17h6577ec651d954e20E+0x10e0>
    8820:	8b150268 	add	x8, x19, x21
    8824:	91000d16 	add	x22, x8, #0x3
    8828:	17ffff2e 	b	84e0 <_ZN4core4cell4once17OnceCell$LT$T$GT$8try_init17h6577ec651d954e20E+0x148c>
    882c:	8b0b0128 	add	x8, x9, x11
    8830:	91000516 	add	x22, x8, #0x1
    8834:	17ffff2b 	b	84e0 <_ZN4core4cell4once17OnceCell$LT$T$GT$8try_init17h6577ec651d954e20E+0x148c>
    8838:	8b0a0108 	add	x8, x8, x10
    883c:	91000516 	add	x22, x8, #0x1
    8840:	17ffff28 	b	84e0 <_ZN4core4cell4once17OnceCell$LT$T$GT$8try_init17h6577ec651d954e20E+0x148c>
    8844:	aa0b03f6 	mov	x22, x11
    8848:	17ffff26 	b	84e0 <_ZN4core4cell4once17OnceCell$LT$T$GT$8try_init17h6577ec651d954e20E+0x148c>
    884c:	aa0a03f6 	mov	x22, x10
    8850:	17ffff24 	b	84e0 <_ZN4core4cell4once17OnceCell$LT$T$GT$8try_init17h6577ec651d954e20E+0x148c>
    8854:	aa0903f6 	mov	x22, x9
    8858:	17ffff22 	b	84e0 <_ZN4core4cell4once17OnceCell$LT$T$GT$8try_init17h6577ec651d954e20E+0x148c>
    885c:	f94053e0 	ldr	x0, [sp, #160]
    8860:	f100543f 	cmp	x1, #0x15
    8864:	54000402 	b.cs	88e4 <_ZN4core4cell4once17OnceCell$LT$T$GT$8try_init17h6577ec651d954e20E+0x1890>  // b.hs, b.nlast
    8868:	94004ee7 	bl	1c404 <_ZN4core5slice4sort6shared9smallsort25insertion_sort_shift_left17h36ed39fa620afffcE>
    886c:	17fffe85 	b	8280 <_ZN4core4cell4once17OnceCell$LT$T$GT$8try_init17h6577ec651d954e20E+0x122c>
    8870:	2a0b03ea 	mov	w10, w11
    8874:	17fffe29 	b	8118 <_ZN4core4cell4once17OnceCell$LT$T$GT$8try_init17h6577ec651d954e20E+0x10c4>
    8878:	91002388 	add	x8, x28, #0x8
    887c:	910323e0 	add	x0, sp, #0xc8
    8880:	a90ddbf7 	stp	x23, x22, [sp, #216]
    8884:	a90cd3e8 	stp	x8, x20, [sp, #200]
    8888:	f90077f3 	str	x19, [sp, #232]
    888c:	9400481d 	bl	1a900 <_ZN4core3ptr284drop_in_place$LT$core..result..Result$LT$$RF$core..result..Result$LT$addr2line..line..Lines$C$gimli..read..Error$GT$$C$$LP$$RF$core..result..Result$LT$addr2line..line..Lines$C$gimli..read..Error$GT$$C$core..result..Result$LT$addr2line..line..Lines$C$gimli..read..Error$GT$$RP$$GT$$GT$17he050df588e8be16fE>
    8890:	d00002c8 	adrp	x8, 62000 <GCC_except_table0+0x108dc>
    8894:	913dc108 	add	x8, x8, #0xf70
    8898:	52800029 	mov	w9, #0x1                   	// #1
    889c:	a90ca7e8 	stp	x8, x9, [sp, #200]
    88a0:	52800108 	mov	w8, #0x8                   	// #8
    88a4:	d00002c1 	adrp	x1, 62000 <GCC_except_table0+0x108dc>
    88a8:	913e0021 	add	x1, x1, #0xf80
    88ac:	910323e0 	add	x0, sp, #0xc8
    88b0:	a90e7fff 	stp	xzr, xzr, [sp, #224]
    88b4:	f9006fe8 	str	x8, [sp, #216]
    88b8:	9400043d 	bl	99ac <_ZN4core9panicking9panic_fmt17ha1b8843c59fc39d4E>
    88bc:	f00002c8 	adrp	x8, 63000 <__do_global_dtors_aux_fini_array_entry+0xe88>
    88c0:	910c2108 	add	x8, x8, #0x308
    88c4:	f9003fe8 	str	x8, [sp, #120]
    88c8:	f9403fe0 	ldr	x0, [sp, #120]
    88cc:	94000390 	bl	970c <_ZN4core9panicking11panic_const23panic_const_rem_by_zero17hca3a8d5d32897cb1E>
    88d0:	1400000b 	b	88fc <_ZN4core4cell4once17OnceCell$LT$T$GT$8try_init17h6577ec651d954e20E+0x18a8>
    88d4:	f00002c0 	adrp	x0, 63000 <__do_global_dtors_aux_fini_array_entry+0xe88>
    88d8:	910c8000 	add	x0, x0, #0x320
    88dc:	9400037f 	bl	96d8 <_ZN4core9panicking11panic_const23panic_const_div_by_zero17h077f55170e23fb59E>
    88e0:	14000007 	b	88fc <_ZN4core4cell4once17OnceCell$LT$T$GT$8try_init17h6577ec651d954e20E+0x18a8>
    88e4:	d100c3a2 	sub	x2, x29, #0x30
    88e8:	94004f70 	bl	1c6a8 <_ZN4core5slice4sort6stable14driftsort_main17h5811ce59f600df79E>
    88ec:	17fffe65 	b	8280 <_ZN4core4cell4once17OnceCell$LT$T$GT$8try_init17h6577ec651d954e20E+0x122c>
    88f0:	52800100 	mov	w0, #0x8                   	// #8
    88f4:	aa1303e1 	mov	x1, x19
    88f8:	94000260 	bl	9278 <_ZN5alloc7raw_vec12handle_error17hbfb8377505525b80E>
    88fc:	d4200020 	brk	#0x1
    8900:	14000031 	b	89c4 <_ZN4core4cell4once17OnceCell$LT$T$GT$8try_init17h6577ec651d954e20E+0x1970>
    8904:	aa0003f3 	mov	x19, x0
    8908:	aa1503e0 	mov	x0, x21
    890c:	aa1703e1 	mov	x1, x23
    8910:	14000005 	b	8924 <_ZN4core4cell4once17OnceCell$LT$T$GT$8try_init17h6577ec651d954e20E+0x18d0>
    8914:	8b180708 	add	x8, x24, x24, lsl #1
    8918:	aa0003f3 	mov	x19, x0
    891c:	aa1c03e0 	mov	x0, x28
    8920:	d37df101 	lsl	x1, x8, #3
    8924:	52800102 	mov	w2, #0x8                   	// #8
    8928:	94000552 	bl	9e70 <_RNvCsiGVaDesi5rv_7___rustc14___rust_dealloc>
    892c:	14000027 	b	89c8 <_ZN4core4cell4once17OnceCell$LT$T$GT$8try_init17h6577ec651d954e20E+0x1974>
    8930:	14000025 	b	89c4 <_ZN4core4cell4once17OnceCell$LT$T$GT$8try_init17h6577ec651d954e20E+0x1970>
    8934:	14000020 	b	89b4 <_ZN4core4cell4once17OnceCell$LT$T$GT$8try_init17h6577ec651d954e20E+0x1960>
    8938:	aa0003f3 	mov	x19, x0
    893c:	910263e0 	add	x0, sp, #0x98
    8940:	94004966 	bl	1aed8 <_ZN4core3ptr73drop_in_place$LT$alloc..vec..Vec$LT$addr2line..line..LineSequence$GT$$GT$17hd647c65691c6d1c7E>
    8944:	aa1403e0 	mov	x0, x20
    8948:	aa1703e1 	mov	x1, x23
    894c:	94004984 	bl	1af5c <_ZN4core3ptr77drop_in_place$LT$alloc..boxed..Box$LT$$u5b$alloc..string..String$u5d$$GT$$GT$17h752b40c2aade86d8E>
    8950:	910323e0 	add	x0, sp, #0xc8
    8954:	940047ac 	bl	1a804 <_ZN4core3ptr275drop_in_place$LT$gimli..read..line..LineRows$LT$gimli..read..endian_slice..EndianSlice$LT$gimli..endianity..LittleEndian$GT$$C$gimli..read..line..IncompleteLineProgram$LT$gimli..read..endian_slice..EndianSlice$LT$gimli..endianity..LittleEndian$GT$$C$usize$GT$$C$usize$GT$$GT$17hd17793f0fba3e097E>
    8958:	f9405be8 	ldr	x8, [sp, #176]
    895c:	b4000748 	cbz	x8, 8a44 <_ZN4core4cell4once17OnceCell$LT$T$GT$8try_init17h6577ec651d954e20E+0x19f0>
    8960:	8b080508 	add	x8, x8, x8, lsl #1
    8964:	f9405fe0 	ldr	x0, [sp, #184]
    8968:	52800102 	mov	w2, #0x8                   	// #8
    896c:	d37df101 	lsl	x1, x8, #3
    8970:	94000540 	bl	9e70 <_RNvCsiGVaDesi5rv_7___rustc14___rust_dealloc>
    8974:	aa1303e0 	mov	x0, x19
    8978:	97fff1ee 	bl	5130 <_Unwind_Resume@plt>
    897c:	aa0003f3 	mov	x19, x0
    8980:	b40001d7 	cbz	x23, 89b8 <_ZN4core4cell4once17OnceCell$LT$T$GT$8try_init17h6577ec651d954e20E+0x1964>
    8984:	aa1803e0 	mov	x0, x24
    8988:	aa1703e1 	mov	x1, x23
    898c:	14000007 	b	89a8 <_ZN4core4cell4once17OnceCell$LT$T$GT$8try_init17h6577ec651d954e20E+0x1954>
    8990:	14000009 	b	89b4 <_ZN4core4cell4once17OnceCell$LT$T$GT$8try_init17h6577ec651d954e20E+0x1960>
    8994:	14000008 	b	89b4 <_ZN4core4cell4once17OnceCell$LT$T$GT$8try_init17h6577ec651d954e20E+0x1960>
    8998:	aa0003f3 	mov	x19, x0
    899c:	b40000f9 	cbz	x25, 89b8 <_ZN4core4cell4once17OnceCell$LT$T$GT$8try_init17h6577ec651d954e20E+0x1964>
    89a0:	aa1803e0 	mov	x0, x24
    89a4:	aa1903e1 	mov	x1, x25
    89a8:	52800022 	mov	w2, #0x1                   	// #1
    89ac:	94000531 	bl	9e70 <_RNvCsiGVaDesi5rv_7___rustc14___rust_dealloc>
    89b0:	14000002 	b	89b8 <_ZN4core4cell4once17OnceCell$LT$T$GT$8try_init17h6577ec651d954e20E+0x1964>
    89b4:	aa0003f3 	mov	x19, x0
    89b8:	d10123a0 	sub	x0, x29, #0x48
    89bc:	940048c1 	bl	1acc0 <_ZN4core3ptr65drop_in_place$LT$alloc..vec..Vec$LT$alloc..string..String$GT$$GT$17hb02d5565998d4b94E>
    89c0:	14000002 	b	89c8 <_ZN4core4cell4once17OnceCell$LT$T$GT$8try_init17h6577ec651d954e20E+0x1974>
    89c4:	aa0003f3 	mov	x19, x0
    89c8:	910323e0 	add	x0, sp, #0xc8
    89cc:	9400478e 	bl	1a804 <_ZN4core3ptr275drop_in_place$LT$gimli..read..line..LineRows$LT$gimli..read..endian_slice..EndianSlice$LT$gimli..endianity..LittleEndian$GT$$C$gimli..read..line..IncompleteLineProgram$LT$gimli..read..endian_slice..EndianSlice$LT$gimli..endianity..LittleEndian$GT$$C$usize$GT$$C$usize$GT$$GT$17hd17793f0fba3e097E>
    89d0:	f9405be8 	ldr	x8, [sp, #176]
    89d4:	b40000c8 	cbz	x8, 89ec <_ZN4core4cell4once17OnceCell$LT$T$GT$8try_init17h6577ec651d954e20E+0x1998>
    89d8:	8b080508 	add	x8, x8, x8, lsl #1
    89dc:	f9405fe0 	ldr	x0, [sp, #184]
    89e0:	52800102 	mov	w2, #0x8                   	// #8
    89e4:	d37df101 	lsl	x1, x8, #3
    89e8:	94000522 	bl	9e70 <_RNvCsiGVaDesi5rv_7___rustc14___rust_dealloc>
    89ec:	910263e0 	add	x0, sp, #0x98
    89f0:	9400493a 	bl	1aed8 <_ZN4core3ptr73drop_in_place$LT$alloc..vec..Vec$LT$addr2line..line..LineSequence$GT$$GT$17hd647c65691c6d1c7E>
    89f4:	aa1303e0 	mov	x0, x19
    89f8:	97fff1ce 	bl	5130 <_Unwind_Resume@plt>
    89fc:	f94027f4 	ldr	x20, [sp, #72]
    8a00:	f9401be8 	ldr	x8, [sp, #48]
    8a04:	aa0003f3 	mov	x19, x0
    8a08:	b4000108 	cbz	x8, 8a28 <_ZN4core4cell4once17OnceCell$LT$T$GT$8try_init17h6577ec651d954e20E+0x19d4>
    8a0c:	d37ef501 	lsl	x1, x8, #2
    8a10:	f94017e0 	ldr	x0, [sp, #40]
    8a14:	52800042 	mov	w2, #0x2                   	// #2
    8a18:	94000516 	bl	9e70 <_RNvCsiGVaDesi5rv_7___rustc14___rust_dealloc>
    8a1c:	14000003 	b	8a28 <_ZN4core4cell4once17OnceCell$LT$T$GT$8try_init17h6577ec651d954e20E+0x19d4>
    8a20:	f94027f4 	ldr	x20, [sp, #72]
    8a24:	aa0003f3 	mov	x19, x0
    8a28:	b40000d4 	cbz	x20, 8a40 <_ZN4core4cell4once17OnceCell$LT$T$GT$8try_init17h6577ec651d954e20E+0x19ec>
    8a2c:	8b140688 	add	x8, x20, x20, lsl #1
    8a30:	aa1803e0 	mov	x0, x24
    8a34:	52800102 	mov	w2, #0x8                   	// #8
    8a38:	d37df101 	lsl	x1, x8, #3
    8a3c:	9400050d 	bl	9e70 <_RNvCsiGVaDesi5rv_7___rustc14___rust_dealloc>
    8a40:	b50000b5 	cbnz	x21, 8a54 <_ZN4core4cell4once17OnceCell$LT$T$GT$8try_init17h6577ec651d954e20E+0x1a00>
    8a44:	aa1303e0 	mov	x0, x19
    8a48:	97fff1ba 	bl	5130 <_Unwind_Resume@plt>
    8a4c:	aa0003f3 	mov	x19, x0
    8a50:	b4ffffb5 	cbz	x21, 8a44 <_ZN4core4cell4once17OnceCell$LT$T$GT$8try_init17h6577ec651d954e20E+0x19f0>
    8a54:	d37ef6a1 	lsl	x1, x21, #2
    8a58:	aa1603e0 	mov	x0, x22
    8a5c:	52800042 	mov	w2, #0x2                   	// #2
    8a60:	94000504 	bl	9e70 <_RNvCsiGVaDesi5rv_7___rustc14___rust_dealloc>
    8a64:	aa1303e0 	mov	x0, x19
    8a68:	97fff1b2 	bl	5130 <_Unwind_Resume@plt>

0000000000008a6c <_ZN4core4cell4once17OnceCell$LT$T$GT$8try_init17h73950e5c0c01b42dE>:
    8a6c:	3940000a 	ldrb	w10, [x0]
    8a70:	aa0103e8 	mov	x8, x1
    8a74:	39400029 	ldrb	w9, [x1]
    8a78:	f9400421 	ldr	x1, [x1, #8]
    8a7c:	71014d5f 	cmp	w10, #0x53
    8a80:	54000101 	b.ne	8aa0 <_ZN4core4cell4once17OnceCell$LT$T$GT$8try_init17h73950e5c0c01b42dE+0x34>  // b.any
    8a84:	b840110a 	ldur	w10, [x8, #1]
    8a88:	b9400508 	ldr	w8, [x8, #4]
    8a8c:	39000009 	strb	w9, [x0]
    8a90:	f9000401 	str	x1, [x0, #8]
    8a94:	b800100a 	stur	w10, [x0, #1]
    8a98:	b9000408 	str	w8, [x0, #4]
    8a9c:	d65f03c0 	ret
    8aa0:	71014d3f 	cmp	w9, #0x53
    8aa4:	54000041 	b.ne	8aac <_ZN4core4cell4once17OnceCell$LT$T$GT$8try_init17h73950e5c0c01b42dE+0x40>  // b.any
    8aa8:	d65f03c0 	ret
    8aac:	d10103ff 	sub	sp, sp, #0x40
    8ab0:	a9037bfd 	stp	x29, x30, [sp, #48]
    8ab4:	9100c3fd 	add	x29, sp, #0x30
    8ab8:	2a0903e0 	mov	w0, w9
    8abc:	940048cd 	bl	1adf0 <_ZN4core3ptr701drop_in_place$LT$core..result..Result$LT$$RF$core..result..Result$LT$core..option..Option$LT$alloc..boxed..Box$LT$addr2line..unit..DwoUnit$LT$gimli..read..endian_slice..EndianSlice$LT$gimli..endianity..LittleEndian$GT$$GT$$GT$$GT$$C$gimli..read..Error$GT$$C$$LP$$RF$core..result..Result$LT$core..option..Option$LT$alloc..boxed..Box$LT$addr2line..unit..DwoUnit$LT$gimli..read..endian_slice..EndianSlice$LT$gimli..endianity..LittleEndian$GT$$GT$$GT$$GT$$C$gimli..read..Error$GT$$C$core..result..Result$LT$core..option..Option$LT$alloc..boxed..Box$LT$addr2line..unit..DwoUnit$LT$gimli..read..endian_slice..EndianSlice$LT$gimli..endianity..LittleEndian$GT$$GT$$GT$$GT$$C$gimli..read..Error$GT$$RP$$GT$$GT$17haa597f867e1a844dE>
    8ac0:	d00002c8 	adrp	x8, 62000 <GCC_except_table0+0x108dc>
    8ac4:	913dc108 	add	x8, x8, #0xf70
    8ac8:	52800029 	mov	w9, #0x1                   	// #1
    8acc:	a90027e8 	stp	x8, x9, [sp]
    8ad0:	52800108 	mov	w8, #0x8                   	// #8
    8ad4:	d00002c1 	adrp	x1, 62000 <GCC_except_table0+0x108dc>
    8ad8:	913e0021 	add	x1, x1, #0xf80
    8adc:	910003e0 	mov	x0, sp
    8ae0:	a901ffff 	stp	xzr, xzr, [sp, #24]
    8ae4:	f9000be8 	str	x8, [sp, #16]
    8ae8:	940003b1 	bl	99ac <_ZN4core9panicking9panic_fmt17ha1b8843c59fc39d4E>

0000000000008aec <_ZN4core4cell4once17OnceCell$LT$T$GT$8try_init17heb6d4d273dc68892E>:
    8aec:	39400008 	ldrb	w8, [x0]
    8af0:	71014d1f 	cmp	w8, #0x53
    8af4:	540000a1 	b.ne	8b08 <_ZN4core4cell4once17OnceCell$LT$T$GT$8try_init17heb6d4d273dc68892E+0x1c>  // b.any
    8af8:	52800a48 	mov	w8, #0x52                  	// #82
    8afc:	f900041f 	str	xzr, [x0, #8]
    8b00:	39000008 	strb	w8, [x0]
    8b04:	d65f03c0 	ret
    8b08:	d10103ff 	sub	sp, sp, #0x40
    8b0c:	a9037bfd 	stp	x29, x30, [sp, #48]
    8b10:	9100c3fd 	add	x29, sp, #0x30
    8b14:	52800a40 	mov	w0, #0x52                  	// #82
    8b18:	aa1f03e1 	mov	x1, xzr
    8b1c:	940048b5 	bl	1adf0 <_ZN4core3ptr701drop_in_place$LT$core..result..Result$LT$$RF$core..result..Result$LT$core..option..Option$LT$alloc..boxed..Box$LT$addr2line..unit..DwoUnit$LT$gimli..read..endian_slice..EndianSlice$LT$gimli..endianity..LittleEndian$GT$$GT$$GT$$GT$$C$gimli..read..Error$GT$$C$$LP$$RF$core..result..Result$LT$core..option..Option$LT$alloc..boxed..Box$LT$addr2line..unit..DwoUnit$LT$gimli..read..endian_slice..EndianSlice$LT$gimli..endianity..LittleEndian$GT$$GT$$GT$$GT$$C$gimli..read..Error$GT$$C$core..result..Result$LT$core..option..Option$LT$alloc..boxed..Box$LT$addr2line..unit..DwoUnit$LT$gimli..read..endian_slice..EndianSlice$LT$gimli..endianity..LittleEndian$GT$$GT$$GT$$GT$$C$gimli..read..Error$GT$$RP$$GT$$GT$17haa597f867e1a844dE>
    8b20:	d00002c8 	adrp	x8, 62000 <GCC_except_table0+0x108dc>
    8b24:	913dc108 	add	x8, x8, #0xf70
    8b28:	52800029 	mov	w9, #0x1                   	// #1
    8b2c:	a90027e8 	stp	x8, x9, [sp]
    8b30:	52800108 	mov	w8, #0x8                   	// #8
    8b34:	d00002c1 	adrp	x1, 62000 <GCC_except_table0+0x108dc>
    8b38:	913e0021 	add	x1, x1, #0xf80
    8b3c:	910003e0 	mov	x0, sp
    8b40:	a901ffff 	stp	xzr, xzr, [sp, #24]
    8b44:	f9000be8 	str	x8, [sp, #16]
    8b48:	94000399 	bl	99ac <_ZN4core9panicking9panic_fmt17ha1b8843c59fc39d4E>

0000000000008b4c <_ZN4core9panicking13assert_failed17h39ff799af53caa7cE>:
    8b4c:	d10083ff 	sub	sp, sp, #0x20
    8b50:	a9017bfd 	stp	x29, x30, [sp, #16]
    8b54:	910043fd 	add	x29, sp, #0x10
    8b58:	a9000be1 	stp	x1, x2, [sp]
    8b5c:	f00002c2 	adrp	x2, 63000 <__do_global_dtors_aux_fini_array_entry+0xe88>
    8b60:	91008042 	add	x2, x2, #0x20
    8b64:	940097d8 	bl	2eac4 <OUTLINED_FUNCTION_24>

0000000000008b68 <_ZN5alloc7raw_vec19RawVec$LT$T$C$A$GT$8grow_one17h118103f54922d7ffE>:
    8b68:	d10103ff 	sub	sp, sp, #0x40
    8b6c:	a9027bfd 	stp	x29, x30, [sp, #32]
    8b70:	a9034ff4 	stp	x20, x19, [sp, #48]
    8b74:	910083fd 	add	x29, sp, #0x20
    8b78:	a9400801 	ldp	x1, x2, [x0]
    8b7c:	52800088 	mov	w8, #0x4                   	// #4
    8b80:	aa0003f3 	mov	x19, x0
    8b84:	910023e0 	add	x0, sp, #0x8
    8b88:	52800104 	mov	w4, #0x8                   	// #8
    8b8c:	52800b05 	mov	w5, #0x58                  	// #88
    8b90:	d37ff829 	lsl	x9, x1, #1
    8b94:	f100113f 	cmp	x9, #0x4
    8b98:	9a888134 	csel	x20, x9, x8, hi  // hi = pmore
    8b9c:	aa1403e3 	mov	x3, x20
    8ba0:	94000110 	bl	8fe0 <_ZN5alloc7raw_vec20RawVecInner$LT$A$GT$11finish_grow17ha0ca981926be2dffE>
    8ba4:	b9400be8 	ldr	w8, [sp, #8]
    8ba8:	7100051f 	cmp	w8, #0x1
    8bac:	540000e0 	b.eq	8bc8 <_ZN5alloc7raw_vec19RawVec$LT$T$C$A$GT$8grow_one17h118103f54922d7ffE+0x60>  // b.none
    8bb0:	f9400be8 	ldr	x8, [sp, #16]
    8bb4:	a9002274 	stp	x20, x8, [x19]
    8bb8:	a9434ff4 	ldp	x20, x19, [sp, #48]
    8bbc:	a9427bfd 	ldp	x29, x30, [sp, #32]
    8bc0:	910103ff 	add	sp, sp, #0x40
    8bc4:	d65f03c0 	ret
    8bc8:	a94107e0 	ldp	x0, x1, [sp, #16]
    8bcc:	940001ab 	bl	9278 <_ZN5alloc7raw_vec12handle_error17hbfb8377505525b80E>

0000000000008bd0 <_ZN5alloc7raw_vec19RawVec$LT$T$C$A$GT$8grow_one17h1353df0b97ca0e95E>:
    8bd0:	d10103ff 	sub	sp, sp, #0x40
    8bd4:	a9027bfd 	stp	x29, x30, [sp, #32]
    8bd8:	a9034ff4 	stp	x20, x19, [sp, #48]
    8bdc:	910083fd 	add	x29, sp, #0x20
    8be0:	a9400801 	ldp	x1, x2, [x0]
    8be4:	52800088 	mov	w8, #0x4                   	// #4
    8be8:	aa0003f3 	mov	x19, x0
    8bec:	910023e0 	add	x0, sp, #0x8
    8bf0:	52800104 	mov	w4, #0x8                   	// #8
    8bf4:	52800405 	mov	w5, #0x20                  	// #32
    8bf8:	d37ff829 	lsl	x9, x1, #1
    8bfc:	f100113f 	cmp	x9, #0x4
    8c00:	9a888134 	csel	x20, x9, x8, hi  // hi = pmore
    8c04:	aa1403e3 	mov	x3, x20
    8c08:	940000f6 	bl	8fe0 <_ZN5alloc7raw_vec20RawVecInner$LT$A$GT$11finish_grow17ha0ca981926be2dffE>
    8c0c:	b9400be8 	ldr	w8, [sp, #8]
    8c10:	7100051f 	cmp	w8, #0x1
    8c14:	540000e0 	b.eq	8c30 <_ZN5alloc7raw_vec19RawVec$LT$T$C$A$GT$8grow_one17h1353df0b97ca0e95E+0x60>  // b.none
    8c18:	f9400be8 	ldr	x8, [sp, #16]
    8c1c:	a9002274 	stp	x20, x8, [x19]
    8c20:	a9434ff4 	ldp	x20, x19, [sp, #48]
    8c24:	a9427bfd 	ldp	x29, x30, [sp, #32]
    8c28:	910103ff 	add	sp, sp, #0x40
    8c2c:	d65f03c0 	ret
    8c30:	a94107e0 	ldp	x0, x1, [sp, #16]
    8c34:	94000191 	bl	9278 <_ZN5alloc7raw_vec12handle_error17hbfb8377505525b80E>

0000000000008c38 <_ZN5alloc7raw_vec19RawVec$LT$T$C$A$GT$8grow_one17h13fe238eeabe2bc0E>:
    8c38:	d10103ff 	sub	sp, sp, #0x40
    8c3c:	a9027bfd 	stp	x29, x30, [sp, #32]
    8c40:	a9034ff4 	stp	x20, x19, [sp, #48]
    8c44:	910083fd 	add	x29, sp, #0x20
    8c48:	a9400801 	ldp	x1, x2, [x0]
    8c4c:	52800088 	mov	w8, #0x4                   	// #4
    8c50:	aa0003f3 	mov	x19, x0
    8c54:	910023e0 	add	x0, sp, #0x8
    8c58:	52800044 	mov	w4, #0x2                   	// #2
    8c5c:	52800085 	mov	w5, #0x4                   	// #4
    8c60:	d37ff829 	lsl	x9, x1, #1
    8c64:	f100113f 	cmp	x9, #0x4
    8c68:	9a888134 	csel	x20, x9, x8, hi  // hi = pmore
    8c6c:	aa1403e3 	mov	x3, x20
    8c70:	940000dc 	bl	8fe0 <_ZN5alloc7raw_vec20RawVecInner$LT$A$GT$11finish_grow17ha0ca981926be2dffE>
    8c74:	b9400be8 	ldr	w8, [sp, #8]
    8c78:	7100051f 	cmp	w8, #0x1
    8c7c:	540000e0 	b.eq	8c98 <_ZN5alloc7raw_vec19RawVec$LT$T$C$A$GT$8grow_one17h13fe238eeabe2bc0E+0x60>  // b.none
    8c80:	f9400be8 	ldr	x8, [sp, #16]
    8c84:	a9002274 	stp	x20, x8, [x19]
    8c88:	a9434ff4 	ldp	x20, x19, [sp, #48]
    8c8c:	a9427bfd 	ldp	x29, x30, [sp, #32]
    8c90:	910103ff 	add	sp, sp, #0x40
    8c94:	d65f03c0 	ret
    8c98:	a94107e0 	ldp	x0, x1, [sp, #16]
    8c9c:	94000177 	bl	9278 <_ZN5alloc7raw_vec12handle_error17hbfb8377505525b80E>

0000000000008ca0 <_ZN5alloc7raw_vec19RawVec$LT$T$C$A$GT$8grow_one17h15f4a69cd7cc8268E>:
    8ca0:	d10103ff 	sub	sp, sp, #0x40
    8ca4:	a9027bfd 	stp	x29, x30, [sp, #32]
    8ca8:	a9034ff4 	stp	x20, x19, [sp, #48]
    8cac:	910083fd 	add	x29, sp, #0x20
    8cb0:	a9400801 	ldp	x1, x2, [x0]
    8cb4:	52800088 	mov	w8, #0x4                   	// #4
    8cb8:	aa0003f3 	mov	x19, x0
    8cbc:	910023e0 	add	x0, sp, #0x8
    8cc0:	52800104 	mov	w4, #0x8                   	// #8
    8cc4:	52800705 	mov	w5, #0x38                  	// #56
    8cc8:	d37ff829 	lsl	x9, x1, #1
    8ccc:	f100113f 	cmp	x9, #0x4
    8cd0:	9a888134 	csel	x20, x9, x8, hi  // hi = pmore
    8cd4:	aa1403e3 	mov	x3, x20
    8cd8:	940000c2 	bl	8fe0 <_ZN5alloc7raw_vec20RawVecInner$LT$A$GT$11finish_grow17ha0ca981926be2dffE>
    8cdc:	b9400be8 	ldr	w8, [sp, #8]
    8ce0:	7100051f 	cmp	w8, #0x1
    8ce4:	540000e0 	b.eq	8d00 <_ZN5alloc7raw_vec19RawVec$LT$T$C$A$GT$8grow_one17h15f4a69cd7cc8268E+0x60>  // b.none
    8ce8:	f9400be8 	ldr	x8, [sp, #16]
    8cec:	a9002274 	stp	x20, x8, [x19]
    8cf0:	a9434ff4 	ldp	x20, x19, [sp, #48]
    8cf4:	a9427bfd 	ldp	x29, x30, [sp, #32]
    8cf8:	910103ff 	add	sp, sp, #0x40
    8cfc:	d65f03c0 	ret
    8d00:	a94107e0 	ldp	x0, x1, [sp, #16]
    8d04:	9400015d 	bl	9278 <_ZN5alloc7raw_vec12handle_error17hbfb8377505525b80E>

0000000000008d08 <_ZN5alloc7raw_vec19RawVec$LT$T$C$A$GT$8grow_one17h235a7742b0bc8973E>:
    8d08:	d10103ff 	sub	sp, sp, #0x40
    8d0c:	a9027bfd 	stp	x29, x30, [sp, #32]
    8d10:	a9034ff4 	stp	x20, x19, [sp, #48]
    8d14:	910083fd 	add	x29, sp, #0x20
    8d18:	a9400801 	ldp	x1, x2, [x0]
    8d1c:	52800088 	mov	w8, #0x4                   	// #4
    8d20:	aa0003f3 	mov	x19, x0
    8d24:	910023e0 	add	x0, sp, #0x8
    8d28:	52800104 	mov	w4, #0x8                   	// #8
    8d2c:	52800305 	mov	w5, #0x18                  	// #24
    8d30:	d37ff829 	lsl	x9, x1, #1
    8d34:	f100113f 	cmp	x9, #0x4
    8d38:	9a888134 	csel	x20, x9, x8, hi  // hi = pmore
    8d3c:	aa1403e3 	mov	x3, x20
    8d40:	940000a8 	bl	8fe0 <_ZN5alloc7raw_vec20RawVecInner$LT$A$GT$11finish_grow17ha0ca981926be2dffE>
    8d44:	b9400be8 	ldr	w8, [sp, #8]
    8d48:	7100051f 	cmp	w8, #0x1
    8d4c:	540000e0 	b.eq	8d68 <_ZN5alloc7raw_vec19RawVec$LT$T$C$A$GT$8grow_one17h235a7742b0bc8973E+0x60>  // b.none
    8d50:	f9400be8 	ldr	x8, [sp, #16]
    8d54:	a9002274 	stp	x20, x8, [x19]
    8d58:	a9434ff4 	ldp	x20, x19, [sp, #48]
    8d5c:	a9427bfd 	ldp	x29, x30, [sp, #32]
    8d60:	910103ff 	add	sp, sp, #0x40
    8d64:	d65f03c0 	ret
    8d68:	a94107e0 	ldp	x0, x1, [sp, #16]
    8d6c:	94000143 	bl	9278 <_ZN5alloc7raw_vec12handle_error17hbfb8377505525b80E>

0000000000008d70 <_ZN5alloc7raw_vec19RawVec$LT$T$C$A$GT$8grow_one17h2403fd2a7e7a58b6E>:
    8d70:	d10103ff 	sub	sp, sp, #0x40
    8d74:	a9027bfd 	stp	x29, x30, [sp, #32]
    8d78:	a9034ff4 	stp	x20, x19, [sp, #48]
    8d7c:	910083fd 	add	x29, sp, #0x20
    8d80:	a9400801 	ldp	x1, x2, [x0]
    8d84:	52800088 	mov	w8, #0x4                   	// #4
    8d88:	aa0003f3 	mov	x19, x0
    8d8c:	910023e0 	add	x0, sp, #0x8
    8d90:	52800104 	mov	w4, #0x8                   	// #8
    8d94:	52800905 	mov	w5, #0x48                  	// #72
    8d98:	d37ff829 	lsl	x9, x1, #1
    8d9c:	f100113f 	cmp	x9, #0x4
    8da0:	9a888134 	csel	x20, x9, x8, hi  // hi = pmore
    8da4:	aa1403e3 	mov	x3, x20
    8da8:	9400008e 	bl	8fe0 <_ZN5alloc7raw_vec20RawVecInner$LT$A$GT$11finish_grow17ha0ca981926be2dffE>
    8dac:	b9400be8 	ldr	w8, [sp, #8]
    8db0:	7100051f 	cmp	w8, #0x1
    8db4:	540000e0 	b.eq	8dd0 <_ZN5alloc7raw_vec19RawVec$LT$T$C$A$GT$8grow_one17h2403fd2a7e7a58b6E+0x60>  // b.none
    8db8:	f9400be8 	ldr	x8, [sp, #16]
    8dbc:	a9002274 	stp	x20, x8, [x19]
    8dc0:	a9434ff4 	ldp	x20, x19, [sp, #48]
    8dc4:	a9427bfd 	ldp	x29, x30, [sp, #32]
    8dc8:	910103ff 	add	sp, sp, #0x40
    8dcc:	d65f03c0 	ret
    8dd0:	a94107e0 	ldp	x0, x1, [sp, #16]
    8dd4:	94000129 	bl	9278 <_ZN5alloc7raw_vec12handle_error17hbfb8377505525b80E>

0000000000008dd8 <_ZN5alloc7raw_vec19RawVec$LT$T$C$A$GT$8grow_one17h284bacb8c8c2a6caE>:
    8dd8:	d10103ff 	sub	sp, sp, #0x40
    8ddc:	a9027bfd 	stp	x29, x30, [sp, #32]
    8de0:	a9034ff4 	stp	x20, x19, [sp, #48]
    8de4:	910083fd 	add	x29, sp, #0x20
    8de8:	a9400801 	ldp	x1, x2, [x0]
    8dec:	52800088 	mov	w8, #0x4                   	// #4
    8df0:	aa0003f3 	mov	x19, x0
    8df4:	910023e0 	add	x0, sp, #0x8
    8df8:	52800104 	mov	w4, #0x8                   	// #8
    8dfc:	52800105 	mov	w5, #0x8                   	// #8
    8e00:	d37ff829 	lsl	x9, x1, #1
    8e04:	f100113f 	cmp	x9, #0x4
    8e08:	9a888134 	csel	x20, x9, x8, hi  // hi = pmore
    8e0c:	aa1403e3 	mov	x3, x20
    8e10:	94000074 	bl	8fe0 <_ZN5alloc7raw_vec20RawVecInner$LT$A$GT$11finish_grow17ha0ca981926be2dffE>
    8e14:	b9400be8 	ldr	w8, [sp, #8]
    8e18:	7100051f 	cmp	w8, #0x1
    8e1c:	540000e0 	b.eq	8e38 <_ZN5alloc7raw_vec19RawVec$LT$T$C$A$GT$8grow_one17h284bacb8c8c2a6caE+0x60>  // b.none
    8e20:	f9400be8 	ldr	x8, [sp, #16]
    8e24:	a9002274 	stp	x20, x8, [x19]
    8e28:	a9434ff4 	ldp	x20, x19, [sp, #48]
    8e2c:	a9427bfd 	ldp	x29, x30, [sp, #32]
    8e30:	910103ff 	add	sp, sp, #0x40
    8e34:	d65f03c0 	ret
    8e38:	a94107e0 	ldp	x0, x1, [sp, #16]
    8e3c:	9400010f 	bl	9278 <_ZN5alloc7raw_vec12handle_error17hbfb8377505525b80E>

0000000000008e40 <_ZN5alloc7raw_vec19RawVec$LT$T$C$A$GT$8grow_one17h51a56fd3e6c9c8a9E>:
    8e40:	d10103ff 	sub	sp, sp, #0x40
    8e44:	a9027bfd 	stp	x29, x30, [sp, #32]
    8e48:	a9034ff4 	stp	x20, x19, [sp, #48]
    8e4c:	910083fd 	add	x29, sp, #0x20
    8e50:	a9400801 	ldp	x1, x2, [x0]
    8e54:	52800088 	mov	w8, #0x4                   	// #4
    8e58:	aa0003f3 	mov	x19, x0
    8e5c:	910023e0 	add	x0, sp, #0x8
    8e60:	52800104 	mov	w4, #0x8                   	// #8
    8e64:	52800205 	mov	w5, #0x10                  	// #16
    8e68:	d37ff829 	lsl	x9, x1, #1
    8e6c:	f100113f 	cmp	x9, #0x4
    8e70:	9a888134 	csel	x20, x9, x8, hi  // hi = pmore
    8e74:	aa1403e3 	mov	x3, x20
    8e78:	9400005a 	bl	8fe0 <_ZN5alloc7raw_vec20RawVecInner$LT$A$GT$11finish_grow17ha0ca981926be2dffE>
    8e7c:	b9400be8 	ldr	w8, [sp, #8]
    8e80:	7100051f 	cmp	w8, #0x1
    8e84:	540000e0 	b.eq	8ea0 <_ZN5alloc7raw_vec19RawVec$LT$T$C$A$GT$8grow_one17h51a56fd3e6c9c8a9E+0x60>  // b.none
    8e88:	f9400be8 	ldr	x8, [sp, #16]
    8e8c:	a9002274 	stp	x20, x8, [x19]
    8e90:	a9434ff4 	ldp	x20, x19, [sp, #48]
    8e94:	a9427bfd 	ldp	x29, x30, [sp, #32]
    8e98:	910103ff 	add	sp, sp, #0x40
    8e9c:	d65f03c0 	ret
    8ea0:	a94107e0 	ldp	x0, x1, [sp, #16]
    8ea4:	940000f5 	bl	9278 <_ZN5alloc7raw_vec12handle_error17hbfb8377505525b80E>

0000000000008ea8 <_ZN5alloc7raw_vec19RawVec$LT$T$C$A$GT$8grow_one17h71651117afe09551E>:
    8ea8:	d10103ff 	sub	sp, sp, #0x40
    8eac:	a9027bfd 	stp	x29, x30, [sp, #32]
    8eb0:	a9034ff4 	stp	x20, x19, [sp, #48]
    8eb4:	910083fd 	add	x29, sp, #0x20
    8eb8:	a9400801 	ldp	x1, x2, [x0]
    8ebc:	52800088 	mov	w8, #0x4                   	// #4
    8ec0:	aa0003f3 	mov	x19, x0
    8ec4:	910023e0 	add	x0, sp, #0x8
    8ec8:	52800104 	mov	w4, #0x8                   	// #8
    8ecc:	52804605 	mov	w5, #0x230                 	// #560
    8ed0:	d37ff829 	lsl	x9, x1, #1
    8ed4:	f100113f 	cmp	x9, #0x4
    8ed8:	9a888134 	csel	x20, x9, x8, hi  // hi = pmore
    8edc:	aa1403e3 	mov	x3, x20
    8ee0:	94000040 	bl	8fe0 <_ZN5alloc7raw_vec20RawVecInner$LT$A$GT$11finish_grow17ha0ca981926be2dffE>
    8ee4:	b9400be8 	ldr	w8, [sp, #8]
    8ee8:	7100051f 	cmp	w8, #0x1
    8eec:	540000e0 	b.eq	8f08 <_ZN5alloc7raw_vec19RawVec$LT$T$C$A$GT$8grow_one17h71651117afe09551E+0x60>  // b.none
    8ef0:	f9400be8 	ldr	x8, [sp, #16]
    8ef4:	a9002274 	stp	x20, x8, [x19]
    8ef8:	a9434ff4 	ldp	x20, x19, [sp, #48]
    8efc:	a9427bfd 	ldp	x29, x30, [sp, #32]
    8f00:	910103ff 	add	sp, sp, #0x40
    8f04:	d65f03c0 	ret
    8f08:	a94107e0 	ldp	x0, x1, [sp, #16]
    8f0c:	940000db 	bl	9278 <_ZN5alloc7raw_vec12handle_error17hbfb8377505525b80E>

0000000000008f10 <_ZN5alloc7raw_vec19RawVec$LT$T$C$A$GT$8grow_one17h8916181841b6aaf5E>:
    8f10:	d10103ff 	sub	sp, sp, #0x40
    8f14:	a9027bfd 	stp	x29, x30, [sp, #32]
    8f18:	a9034ff4 	stp	x20, x19, [sp, #48]
    8f1c:	910083fd 	add	x29, sp, #0x20
    8f20:	a9400801 	ldp	x1, x2, [x0]
    8f24:	52800088 	mov	w8, #0x4                   	// #4
    8f28:	aa0003f3 	mov	x19, x0
    8f2c:	910023e0 	add	x0, sp, #0x8
    8f30:	52800104 	mov	w4, #0x8                   	// #8
    8f34:	52800605 	mov	w5, #0x30                  	// #48
    8f38:	d37ff829 	lsl	x9, x1, #1
    8f3c:	f100113f 	cmp	x9, #0x4
    8f40:	9a888134 	csel	x20, x9, x8, hi  // hi = pmore
    8f44:	aa1403e3 	mov	x3, x20
    8f48:	94000026 	bl	8fe0 <_ZN5alloc7raw_vec20RawVecInner$LT$A$GT$11finish_grow17ha0ca981926be2dffE>
    8f4c:	b9400be8 	ldr	w8, [sp, #8]
    8f50:	7100051f 	cmp	w8, #0x1
    8f54:	540000e0 	b.eq	8f70 <_ZN5alloc7raw_vec19RawVec$LT$T$C$A$GT$8grow_one17h8916181841b6aaf5E+0x60>  // b.none
    8f58:	f9400be8 	ldr	x8, [sp, #16]
    8f5c:	a9002274 	stp	x20, x8, [x19]
    8f60:	a9434ff4 	ldp	x20, x19, [sp, #48]
    8f64:	a9427bfd 	ldp	x29, x30, [sp, #32]
    8f68:	910103ff 	add	sp, sp, #0x40
    8f6c:	d65f03c0 	ret
    8f70:	a94107e0 	ldp	x0, x1, [sp, #16]
    8f74:	940000c1 	bl	9278 <_ZN5alloc7raw_vec12handle_error17hbfb8377505525b80E>

0000000000008f78 <_ZN5alloc7raw_vec19RawVec$LT$T$C$A$GT$8grow_one17hd7a3c5d26fcd6bd5E>:
    8f78:	d10103ff 	sub	sp, sp, #0x40
    8f7c:	a9027bfd 	stp	x29, x30, [sp, #32]
    8f80:	a9034ff4 	stp	x20, x19, [sp, #48]
    8f84:	910083fd 	add	x29, sp, #0x20
    8f88:	a9400801 	ldp	x1, x2, [x0]
    8f8c:	52800088 	mov	w8, #0x4                   	// #4
    8f90:	aa0003f3 	mov	x19, x0
    8f94:	910023e0 	add	x0, sp, #0x8
    8f98:	52800104 	mov	w4, #0x8                   	// #8
    8f9c:	52803905 	mov	w5, #0x1c8                 	// #456
    8fa0:	d37ff829 	lsl	x9, x1, #1
    8fa4:	f100113f 	cmp	x9, #0x4
    8fa8:	9a888134 	csel	x20, x9, x8, hi  // hi = pmore
    8fac:	aa1403e3 	mov	x3, x20
    8fb0:	9400000c 	bl	8fe0 <_ZN5alloc7raw_vec20RawVecInner$LT$A$GT$11finish_grow17ha0ca981926be2dffE>
    8fb4:	b9400be8 	ldr	w8, [sp, #8]
    8fb8:	7100051f 	cmp	w8, #0x1
    8fbc:	540000e0 	b.eq	8fd8 <_ZN5alloc7raw_vec19RawVec$LT$T$C$A$GT$8grow_one17hd7a3c5d26fcd6bd5E+0x60>  // b.none
    8fc0:	f9400be8 	ldr	x8, [sp, #16]
    8fc4:	a9002274 	stp	x20, x8, [x19]
    8fc8:	a9434ff4 	ldp	x20, x19, [sp, #48]
    8fcc:	a9427bfd 	ldp	x29, x30, [sp, #32]
    8fd0:	910103ff 	add	sp, sp, #0x40
    8fd4:	d65f03c0 	ret
    8fd8:	a94107e0 	ldp	x0, x1, [sp, #16]
    8fdc:	940000a7 	bl	9278 <_ZN5alloc7raw_vec12handle_error17hbfb8377505525b80E>

0000000000008fe0 <_ZN5alloc7raw_vec20RawVecInner$LT$A$GT$11finish_grow17ha0ca981926be2dffE>:
    8fe0:	a9bd7bfd 	stp	x29, x30, [sp, #-48]!
    8fe4:	f9000bf5 	str	x21, [sp, #16]
    8fe8:	a9024ff4 	stp	x20, x19, [sp, #32]
    8fec:	910003fd 	mov	x29, sp
    8ff0:	8b050088 	add	x8, x4, x5
    8ff4:	cb0403ea 	neg	x10, x4
    8ff8:	aa0003f3 	mov	x19, x0
    8ffc:	d1000508 	sub	x8, x8, #0x1
    9000:	aa1f03e9 	mov	x9, xzr
    9004:	8a0a010b 	and	x11, x8, x10
    9008:	5280010a 	mov	w10, #0x8                   	// #8
    900c:	9bc37d68 	umulh	x8, x11, x3
    9010:	eb0803ff 	cmp	xzr, x8
    9014:	52800028 	mov	w8, #0x1                   	// #1
    9018:	540003a1 	b.ne	908c <_ZN5alloc7raw_vec20RawVecInner$LT$A$GT$11finish_grow17ha0ca981926be2dffE+0xac>  // b.any
    901c:	9b037d75 	mul	x21, x11, x3
    9020:	d2f0000b 	mov	x11, #0x8000000000000000    	// #-9223372036854775808
    9024:	aa0403f4 	mov	x20, x4
    9028:	cb04016b 	sub	x11, x11, x4
    902c:	eb0b02bf 	cmp	x21, x11
    9030:	540002e8 	b.hi	908c <_ZN5alloc7raw_vec20RawVecInner$LT$A$GT$11finish_grow17ha0ca981926be2dffE+0xac>  // b.pmore
    9034:	b4000101 	cbz	x1, 9054 <_ZN5alloc7raw_vec20RawVecInner$LT$A$GT$11finish_grow17ha0ca981926be2dffE+0x74>
    9038:	9b017ca1 	mul	x1, x5, x1
    903c:	aa0203e0 	mov	x0, x2
    9040:	aa1403e2 	mov	x2, x20
    9044:	aa1503e3 	mov	x3, x21
    9048:	9400038b 	bl	9e74 <_RNvCsiGVaDesi5rv_7___rustc14___rust_realloc>
    904c:	b5000180 	cbnz	x0, 907c <_ZN5alloc7raw_vec20RawVecInner$LT$A$GT$11finish_grow17ha0ca981926be2dffE+0x9c>
    9050:	14000007 	b	906c <_ZN5alloc7raw_vec20RawVecInner$LT$A$GT$11finish_grow17ha0ca981926be2dffE+0x8c>
    9054:	b4000135 	cbz	x21, 9078 <_ZN5alloc7raw_vec20RawVecInner$LT$A$GT$11finish_grow17ha0ca981926be2dffE+0x98>
    9058:	9400038b 	bl	9e84 <_RNvCsiGVaDesi5rv_7___rustc35___rust_no_alloc_shim_is_unstable_v2>
    905c:	aa1503e0 	mov	x0, x21
    9060:	aa1403e1 	mov	x1, x20
    9064:	94000382 	bl	9e6c <_RNvCsiGVaDesi5rv_7___rustc12___rust_alloc>
    9068:	b50000a0 	cbnz	x0, 907c <_ZN5alloc7raw_vec20RawVecInner$LT$A$GT$11finish_grow17ha0ca981926be2dffE+0x9c>
    906c:	52800028 	mov	w8, #0x1                   	// #1
    9070:	f9000674 	str	x20, [x19, #8]
    9074:	14000004 	b	9084 <_ZN5alloc7raw_vec20RawVecInner$LT$A$GT$11finish_grow17ha0ca981926be2dffE+0xa4>
    9078:	aa1403e0 	mov	x0, x20
    907c:	aa1f03e8 	mov	x8, xzr
    9080:	f9000660 	str	x0, [x19, #8]
    9084:	5280020a 	mov	w10, #0x10                  	// #16
    9088:	aa1503e9 	mov	x9, x21
    908c:	f82a6a69 	str	x9, [x19, x10]
    9090:	f9000268 	str	x8, [x19]
    9094:	a9424ff4 	ldp	x20, x19, [sp, #32]
    9098:	f9400bf5 	ldr	x21, [sp, #16]
    909c:	a8c37bfd 	ldp	x29, x30, [sp], #48
    90a0:	d65f03c0 	ret

00000000000090a4 <_ZN5alloc7raw_vec20RawVecInner$LT$A$GT$7reserve21do_reserve_and_handle17hf30069cb7075bcd0E>:
    90a4:	d10103ff 	sub	sp, sp, #0x40
    90a8:	a9027bfd 	stp	x29, x30, [sp, #32]
    90ac:	a9034ff4 	stp	x20, x19, [sp, #48]
    90b0:	910083fd 	add	x29, sp, #0x20
    90b4:	ab010048 	adds	x8, x2, x1
    90b8:	54000342 	b.cs	9120 <_ZN5alloc7raw_vec20RawVecInner$LT$A$GT$7reserve21do_reserve_and_handle17hf30069cb7075bcd0E+0x7c>  // b.hs, b.nlast
    90bc:	a9400801 	ldp	x1, x2, [x0]
    90c0:	aa0403e5 	mov	x5, x4
    90c4:	5280010a 	mov	w10, #0x8                   	// #8
    90c8:	aa0303e4 	mov	x4, x3
    90cc:	aa0003f3 	mov	x19, x0
    90d0:	910023e0 	add	x0, sp, #0x8
    90d4:	d37ff829 	lsl	x9, x1, #1
    90d8:	eb09011f 	cmp	x8, x9
    90dc:	9a898108 	csel	x8, x8, x9, hi  // hi = pmore
    90e0:	f10004bf 	cmp	x5, #0x1
    90e4:	52800089 	mov	w9, #0x4                   	// #4
    90e8:	9a890149 	csel	x9, x10, x9, eq  // eq = none
    90ec:	eb09011f 	cmp	x8, x9
    90f0:	9a898114 	csel	x20, x8, x9, hi  // hi = pmore
    90f4:	aa1403e3 	mov	x3, x20
    90f8:	97ffffba 	bl	8fe0 <_ZN5alloc7raw_vec20RawVecInner$LT$A$GT$11finish_grow17ha0ca981926be2dffE>
    90fc:	b9400be8 	ldr	w8, [sp, #8]
    9100:	7100051f 	cmp	w8, #0x1
    9104:	54000120 	b.eq	9128 <_ZN5alloc7raw_vec20RawVecInner$LT$A$GT$7reserve21do_reserve_and_handle17hf30069cb7075bcd0E+0x84>  // b.none
    9108:	f9400be8 	ldr	x8, [sp, #16]
    910c:	a9002274 	stp	x20, x8, [x19]
    9110:	a9434ff4 	ldp	x20, x19, [sp, #48]
    9114:	a9427bfd 	ldp	x29, x30, [sp, #32]
    9118:	910103ff 	add	sp, sp, #0x40
    911c:	d65f03c0 	ret
    9120:	aa1f03e0 	mov	x0, xzr
    9124:	94000055 	bl	9278 <_ZN5alloc7raw_vec12handle_error17hbfb8377505525b80E>
    9128:	a94107e0 	ldp	x0, x1, [sp, #16]
    912c:	94000053 	bl	9278 <_ZN5alloc7raw_vec12handle_error17hbfb8377505525b80E>

0000000000009130 <_ZN5alloc7raw_vec20RawVecInner$LT$A$GT$7reserve21do_reserve_and_handle17h35b8febad3e418c4E>:
    9130:	a9bf7bfd 	stp	x29, x30, [sp, #-16]!
    9134:	910003fd 	mov	x29, sp
    9138:	94009ce3 	bl	304c4 <_ZN5alloc7raw_vec20RawVecInner$LT$A$GT$14grow_amortized17h29de543ef8ea0fb4E>
    913c:	b24107e8 	mov	x8, #0x8000000000000001    	// #-9223372036854775807
    9140:	eb08001f 	cmp	x0, x8
    9144:	54000061 	b.ne	9150 <_ZN5alloc7raw_vec20RawVecInner$LT$A$GT$7reserve21do_reserve_and_handle17h35b8febad3e418c4E+0x20>  // b.any
    9148:	a8c17bfd 	ldp	x29, x30, [sp], #16
    914c:	d65f03c0 	ret
    9150:	9400004a 	bl	9278 <_ZN5alloc7raw_vec12handle_error17hbfb8377505525b80E>

0000000000009154 <_ZN5alloc7raw_vec20RawVecInner$LT$A$GT$11finish_grow17ha2c1495e3d55b490E>:
    9154:	d10103ff 	sub	sp, sp, #0x40
    9158:	a9017bfd 	stp	x29, x30, [sp, #16]
    915c:	f90013f5 	str	x21, [sp, #32]
    9160:	a9034ff4 	stp	x20, x19, [sp, #48]
    9164:	910043fd 	add	x29, sp, #0x10
    9168:	aa0803f3 	mov	x19, x8
    916c:	8b030048 	add	x8, x2, x3
    9170:	cb0203ea 	neg	x10, x2
    9174:	d1000508 	sub	x8, x8, #0x1
    9178:	aa1f03e9 	mov	x9, xzr
    917c:	8a0a010b 	and	x11, x8, x10
    9180:	5280010a 	mov	w10, #0x8                   	// #8
    9184:	9bc17d68 	umulh	x8, x11, x1
    9188:	eb0803ff 	cmp	xzr, x8
    918c:	52800028 	mov	w8, #0x1                   	// #1
    9190:	540005a1 	b.ne	9244 <_ZN5alloc7raw_vec20RawVecInner$LT$A$GT$11finish_grow17ha2c1495e3d55b490E+0xf0>  // b.any
    9194:	9b017d75 	mul	x21, x11, x1
    9198:	d2f0000b 	mov	x11, #0x8000000000000000    	// #-9223372036854775808
    919c:	aa0203f4 	mov	x20, x2
    91a0:	cb02016b 	sub	x11, x11, x2
    91a4:	eb0b02bf 	cmp	x21, x11
    91a8:	540004e8 	b.hi	9244 <_ZN5alloc7raw_vec20RawVecInner$LT$A$GT$11finish_grow17ha2c1495e3d55b490E+0xf0>  // b.pmore
    91ac:	b4000103 	cbz	x3, 91cc <_ZN5alloc7raw_vec20RawVecInner$LT$A$GT$11finish_grow17ha2c1495e3d55b490E+0x78>
    91b0:	f9400008 	ldr	x8, [x0]
    91b4:	b40000e8 	cbz	x8, 91d0 <_ZN5alloc7raw_vec20RawVecInner$LT$A$GT$11finish_grow17ha2c1495e3d55b490E+0x7c>
    91b8:	9b037d08 	mul	x8, x8, x3
    91bc:	f9400400 	ldr	x0, [x0, #8]
    91c0:	910023e9 	add	x9, sp, #0x8
    91c4:	f9000fb4 	str	x20, [x29, #24]
    91c8:	14000003 	b	91d4 <_ZN5alloc7raw_vec20RawVecInner$LT$A$GT$11finish_grow17ha2c1495e3d55b490E+0x80>
    91cc:	aa1f03e8 	mov	x8, xzr
    91d0:	910063a9 	add	x9, x29, #0x18
    91d4:	f9000128 	str	x8, [x9]
    91d8:	f9400fa8 	ldr	x8, [x29, #24]
    91dc:	b4000108 	cbz	x8, 91fc <_ZN5alloc7raw_vec20RawVecInner$LT$A$GT$11finish_grow17ha2c1495e3d55b490E+0xa8>
    91e0:	f94007e1 	ldr	x1, [sp, #8]
    91e4:	b4000121 	cbz	x1, 9208 <_ZN5alloc7raw_vec20RawVecInner$LT$A$GT$11finish_grow17ha2c1495e3d55b490E+0xb4>
    91e8:	aa1403e2 	mov	x2, x20
    91ec:	aa1503e3 	mov	x3, x21
    91f0:	94000321 	bl	9e74 <_RNvCsiGVaDesi5rv_7___rustc14___rust_realloc>
    91f4:	b5000160 	cbnz	x0, 9220 <_ZN5alloc7raw_vec20RawVecInner$LT$A$GT$11finish_grow17ha2c1495e3d55b490E+0xcc>
    91f8:	1400000f 	b	9234 <_ZN5alloc7raw_vec20RawVecInner$LT$A$GT$11finish_grow17ha2c1495e3d55b490E+0xe0>
    91fc:	b5000095 	cbnz	x21, 920c <_ZN5alloc7raw_vec20RawVecInner$LT$A$GT$11finish_grow17ha2c1495e3d55b490E+0xb8>
    9200:	aa1403e0 	mov	x0, x20
    9204:	14000007 	b	9220 <_ZN5alloc7raw_vec20RawVecInner$LT$A$GT$11finish_grow17ha2c1495e3d55b490E+0xcc>
    9208:	b4000135 	cbz	x21, 922c <_ZN5alloc7raw_vec20RawVecInner$LT$A$GT$11finish_grow17ha2c1495e3d55b490E+0xd8>
    920c:	9400031e 	bl	9e84 <_RNvCsiGVaDesi5rv_7___rustc35___rust_no_alloc_shim_is_unstable_v2>
    9210:	aa1503e0 	mov	x0, x21
    9214:	aa1403e1 	mov	x1, x20
    9218:	94000315 	bl	9e6c <_RNvCsiGVaDesi5rv_7___rustc12___rust_alloc>
    921c:	b40000c0 	cbz	x0, 9234 <_ZN5alloc7raw_vec20RawVecInner$LT$A$GT$11finish_grow17ha2c1495e3d55b490E+0xe0>
    9220:	aa1f03e8 	mov	x8, xzr
    9224:	f9000660 	str	x0, [x19, #8]
    9228:	14000005 	b	923c <_ZN5alloc7raw_vec20RawVecInner$LT$A$GT$11finish_grow17ha2c1495e3d55b490E+0xe8>
    922c:	aa1403e0 	mov	x0, x20
    9230:	b5ffff80 	cbnz	x0, 9220 <_ZN5alloc7raw_vec20RawVecInner$LT$A$GT$11finish_grow17ha2c1495e3d55b490E+0xcc>
    9234:	52800028 	mov	w8, #0x1                   	// #1
    9238:	f9000674 	str	x20, [x19, #8]
    923c:	5280020a 	mov	w10, #0x10                  	// #16
    9240:	aa1503e9 	mov	x9, x21
    9244:	f82a6a69 	str	x9, [x19, x10]
    9248:	f9000268 	str	x8, [x19]
    924c:	a9434ff4 	ldp	x20, x19, [sp, #48]
    9250:	f94013f5 	ldr	x21, [sp, #32]
    9254:	a9417bfd 	ldp	x29, x30, [sp, #16]
    9258:	910103ff 	add	sp, sp, #0x40
    925c:	d65f03c0 	ret

0000000000009260 <_ZN5alloc5alloc18handle_alloc_error17he33c80bc22c8a8d7E>:
    9260:	a9bf7bfd 	stp	x29, x30, [sp, #-16]!
    9264:	910003fd 	mov	x29, sp
    9268:	aa0003e8 	mov	x8, x0
    926c:	aa0103e0 	mov	x0, x1
    9270:	aa0803e1 	mov	x1, x8
    9274:	97ffefdb 	bl	51e0 <_RNvCsiGVaDesi5rv_7___rustc26___rust_alloc_error_handler>

0000000000009278 <_ZN5alloc7raw_vec12handle_error17hbfb8377505525b80E>:
    9278:	a9bf7bfd 	stp	x29, x30, [sp, #-16]!
    927c:	910003fd 	mov	x29, sp
    9280:	b5000040 	cbnz	x0, 9288 <_ZN5alloc7raw_vec12handle_error17hbfb8377505525b80E+0x10>
    9284:	94000002 	bl	928c <_ZN5alloc7raw_vec17capacity_overflow17h23eb73f0eae3a49dE>
    9288:	97fffff6 	bl	9260 <_ZN5alloc5alloc18handle_alloc_error17he33c80bc22c8a8d7E>

000000000000928c <_ZN5alloc7raw_vec17capacity_overflow17h23eb73f0eae3a49dE>:
    928c:	d10103ff 	sub	sp, sp, #0x40
    9290:	a9037bfd 	stp	x29, x30, [sp, #48]
    9294:	9100c3fd 	add	x29, sp, #0x30
    9298:	f00002c8 	adrp	x8, 64000 <__do_global_dtors_aux_fini_array_entry+0x1e88>
    929c:	91080108 	add	x8, x8, #0x200
    92a0:	52800029 	mov	w9, #0x1                   	// #1
    92a4:	a90027e8 	stp	x8, x9, [sp]
    92a8:	52800108 	mov	w8, #0x8                   	// #8
    92ac:	f00002c1 	adrp	x1, 64000 <__do_global_dtors_aux_fini_array_entry+0x1e88>
    92b0:	91084021 	add	x1, x1, #0x210
    92b4:	910003e0 	mov	x0, sp
    92b8:	a901ffff 	stp	xzr, xzr, [sp, #24]
    92bc:	f9000be8 	str	x8, [sp, #16]
    92c0:	940001bb 	bl	99ac <_ZN4core9panicking9panic_fmt17ha1b8843c59fc39d4E>

00000000000092c4 <_ZN5alloc7raw_vec20RawVecInner$LT$A$GT$11finish_grow17h886678797f2e1ed8E>:
    92c4:	a9be7bfd 	stp	x29, x30, [sp, #-32]!
    92c8:	a9014ff4 	stp	x20, x19, [sp, #16]
    92cc:	910003fd 	mov	x29, sp
    92d0:	aa0003f4 	mov	x20, x0
    92d4:	b6f80103 	tbz	x3, #63, 92f4 <_ZN5alloc7raw_vec20RawVecInner$LT$A$GT$11finish_grow17h886678797f2e1ed8E+0x30>
    92d8:	52800028 	mov	w8, #0x1                   	// #1
